   1              		.file	"onboard_matlab.c"
   9              	.Ltext0:
  10              		.global	__modsi3
  11              		.global	__divsi3
  12              		.align	2
  13              		.global	div_nzp_s32_ceiling
  15              	div_nzp_s32_ceiling:
  16              	.LFB2:
  17              		.file 1 "../custom_mdl/onboard_matlab_ert_rtw/onboard_matlab.c"
   1:../custom_mdl/onboard_matlab_ert_rtw/onboard_matlab.c **** /*
   2:../custom_mdl/onboard_matlab_ert_rtw/onboard_matlab.c ****  * File: onboard_matlab.c
   3:../custom_mdl/onboard_matlab_ert_rtw/onboard_matlab.c ****  *
   4:../custom_mdl/onboard_matlab_ert_rtw/onboard_matlab.c ****  * Code generated for Simulink model 'onboard_matlab'.
   5:../custom_mdl/onboard_matlab_ert_rtw/onboard_matlab.c ****  *
   6:../custom_mdl/onboard_matlab_ert_rtw/onboard_matlab.c ****  * Model version                  : 1.1561
   7:../custom_mdl/onboard_matlab_ert_rtw/onboard_matlab.c ****  * Simulink Coder version         : 8.4 (R2013a) 13-Feb-2013
   8:../custom_mdl/onboard_matlab_ert_rtw/onboard_matlab.c ****  * TLC version                    : 8.4 (Jan 19 2013)
   9:../custom_mdl/onboard_matlab_ert_rtw/onboard_matlab.c ****  * C/C++ source code generated on : Thu Feb 04 00:10:56 2016
  10:../custom_mdl/onboard_matlab_ert_rtw/onboard_matlab.c ****  *
  11:../custom_mdl/onboard_matlab_ert_rtw/onboard_matlab.c ****  * Target selection: ert.tlc
  12:../custom_mdl/onboard_matlab_ert_rtw/onboard_matlab.c ****  * Embedded hardware selection: ARM Compatible->ARM 7
  13:../custom_mdl/onboard_matlab_ert_rtw/onboard_matlab.c ****  * Code generation objectives: Unspecified
  14:../custom_mdl/onboard_matlab_ert_rtw/onboard_matlab.c ****  * Validation result: Not run
  15:../custom_mdl/onboard_matlab_ert_rtw/onboard_matlab.c ****  */
  16:../custom_mdl/onboard_matlab_ert_rtw/onboard_matlab.c **** 
  17:../custom_mdl/onboard_matlab_ert_rtw/onboard_matlab.c **** #include "onboard_matlab.h"
  18:../custom_mdl/onboard_matlab_ert_rtw/onboard_matlab.c **** #include "onboard_matlab_private.h"
  19:../custom_mdl/onboard_matlab_ert_rtw/onboard_matlab.c **** 
  20:../custom_mdl/onboard_matlab_ert_rtw/onboard_matlab.c **** /* Block states (auto storage) */
  21:../custom_mdl/onboard_matlab_ert_rtw/onboard_matlab.c **** D_Work_onboard_matlab onboard_matlab_DWork;
  22:../custom_mdl/onboard_matlab_ert_rtw/onboard_matlab.c **** 
  23:../custom_mdl/onboard_matlab_ert_rtw/onboard_matlab.c **** /* External inputs (root inport signals with auto storage) */
  24:../custom_mdl/onboard_matlab_ert_rtw/onboard_matlab.c **** ExternalInputs_onboard_matlab onboard_matlab_U;
  25:../custom_mdl/onboard_matlab_ert_rtw/onboard_matlab.c **** 
  26:../custom_mdl/onboard_matlab_ert_rtw/onboard_matlab.c **** /* External outputs (root outports fed by signals with auto storage) */
  27:../custom_mdl/onboard_matlab_ert_rtw/onboard_matlab.c **** ExternalOutputs_onboard_matlab onboard_matlab_Y;
  28:../custom_mdl/onboard_matlab_ert_rtw/onboard_matlab.c **** int32_T div_nzp_s32_ceiling(int32_T numerator, int32_T denominator)
  29:../custom_mdl/onboard_matlab_ert_rtw/onboard_matlab.c **** {
  18              	unction supports interworking.
  19              		@ args = 0, pretend = 0, frame = 0
  20              		@ frame_needed = 0, uses_anonymous_args = 0
  21              	.LVL0:
  22              		.loc 1 30 0
  30:../custom_mdl/onboard_matlab_ert_rtw/onboard_matlab.c ****   return (((numerator < 0) == (denominator < 0)) && (numerator % denominator) ?
  23              	r2, r0
  24 0000 0020E0E1 		mov	r3, r1, lsr #31
  25 0004 A13FA0E1 		eors	r3, r3, r2, lsr #31
  26 0008 A23F33E0 		.loc 1 29 0
  27              		stmfd	sp!, {r4, r5, r6, lr}
  28 000c 70402DE9 	.LCFI0:
  29              		.loc 1 29 0
  30              		mov	r4, r0
  31 0010 0040A0E1 		mov	r5, r1
  32 0014 0150A0E1 		.loc 1 30 0
  33              		mov	r6, r3
  34 0018 0360A0E1 		beq	.L4
  35 001c 0200000A 	.LVL1:
  36              		bl	__modsi3
  37 0020 FEFFFFEB 		subs	r6, r0, #0
  38 0024 006050E2 		movne	r6, #1
  39 0028 0160A013 	.LVL2:
  40              	.L4:
  41              		mov	r0, r4
  42 002c 0400A0E1 		mov	r1, r5
  43 0030 0510A0E1 		bl	__divsi3
  44 0034 FEFFFFEB 		.loc 1 32 0
  31:../custom_mdl/onboard_matlab_ert_rtw/onboard_matlab.c ****           1 : 0) + numerator / denominator;
  32:../custom_mdl/onboard_matlab_ert_rtw/onboard_matlab.c **** }
  45              		sp!, {r4, r5, r6, lr}
  46 0038 000086E0 		bx	lr
  47 003c 7040BDE8 	.LFE2:
  49              		.align	2
  50              		.global	mul_wide_s32
  52              	mul_wide_s32:
  53              	.LFB3:
  54              		.loc 1 36 0
  55              		@ Function supports interworking.
  33:../custom_mdl/onboard_matlab_ert_rtw/onboard_matlab.c **** 
  34:../custom_mdl/onboard_matlab_ert_rtw/onboard_matlab.c **** void mul_wide_s32(int32_T in0, int32_T in1, uint32_T *ptrOutBitsHi, uint32_T
  35:../custom_mdl/onboard_matlab_ert_rtw/onboard_matlab.c ****                   *ptrOutBitsLo)
  36:../custom_mdl/onboard_matlab_ert_rtw/onboard_matlab.c **** {
  56              	, pretend = 0, frame = 0
  57              		@ frame_needed = 0, uses_anonymous_args = 0
  58              	.LVL3:
  59              		stmfd	sp!, {r4, r5, r6, r7, r8, sl, lr}
  60              	.LCFI1:
  61 0044 F0452DE9 		.loc 1 44 0
  62              		eor	r4, r0, r0, asr #31
  37:../custom_mdl/onboard_matlab_ert_rtw/onboard_matlab.c ****   uint32_T absIn;
  38:../custom_mdl/onboard_matlab_ert_rtw/onboard_matlab.c ****   uint32_T absIn_0;
  39:../custom_mdl/onboard_matlab_ert_rtw/onboard_matlab.c ****   uint32_T in0Lo;
  40:../custom_mdl/onboard_matlab_ert_rtw/onboard_matlab.c ****   uint32_T in0Hi;
  41:../custom_mdl/onboard_matlab_ert_rtw/onboard_matlab.c ****   uint32_T in1Hi;
  42:../custom_mdl/onboard_matlab_ert_rtw/onboard_matlab.c ****   uint32_T productHiLo;
  43:../custom_mdl/onboard_matlab_ert_rtw/onboard_matlab.c ****   uint32_T productLoHi;
  44:../custom_mdl/onboard_matlab_ert_rtw/onboard_matlab.c ****   absIn = (uint32_T)(in0 < 0 ? -in0 : in0);
  63              	, r4, r0, asr #31
  64 0048 C04F20E0 	.LVL4:
  65 004c C04F44E0 		.loc 1 36 0
  66              		mov	r8, r0
  67              		.loc 1 45 0
  68 0050 0080A0E1 		eor	r0, r1, r1, asr #31
  45:../custom_mdl/onboard_matlab_ert_rtw/onboard_matlab.c ****   absIn_0 = (uint32_T)(in1 < 0 ? -in1 : in1);
  69              	0, r0, r1, asr #31
  70 0054 C10F21E0 	.LVL5:
  71 0058 C10F40E0 		.loc 1 49 0
  72              		mov	ip, r0, asl #16
  46:../custom_mdl/onboard_matlab_ert_rtw/onboard_matlab.c ****   in0Hi = absIn >> 16U;
  47:../custom_mdl/onboard_matlab_ert_rtw/onboard_matlab.c ****   in0Lo = absIn & 65535U;
  48:../custom_mdl/onboard_matlab_ert_rtw/onboard_matlab.c ****   in1Hi = absIn_0 >> 16U;
  49:../custom_mdl/onboard_matlab_ert_rtw/onboard_matlab.c ****   absIn = absIn_0 & 65535U;
  73              	6:
  74 005c 00C8A0E1 		.loc 1 36 0
  75              		mov	sl, r1
  76              		.loc 1 47 0
  77 0060 01A0A0E1 		mov	r1, r4, asl #16
  78              	.LVL7:
  79 0064 0418A0E1 		mov	r1, r1, lsr #16
  80              		.loc 1 49 0
  81 0068 2118A0E1 		mov	ip, ip, lsr #16
  82              		.loc 1 48 0
  83 006c 2CC8A0E1 		mov	r0, r0, lsr #16
  84              	.LVL8:
  85 0070 2008A0E1 		.loc 1 52 0
  86              		mul	r7, ip, r1
  50:../custom_mdl/onboard_matlab_ert_rtw/onboard_matlab.c ****   productHiLo = in0Hi * absIn;
  51:../custom_mdl/onboard_matlab_ert_rtw/onboard_matlab.c ****   productLoHi = in0Lo * in1Hi;
  52:../custom_mdl/onboard_matlab_ert_rtw/onboard_matlab.c ****   absIn *= in0Lo;
  87              	 51 0
  88 0074 9C0107E0 		mul	r5, r0, r1
  89              	.LVL10:
  90              		.loc 1 46 0
  91 0078 900105E0 		mov	r4, r4, lsr #16
  92              	.LVL11:
  93              		.loc 1 50 0
  94 007c 2448A0E1 		mul	r6, ip, r4
  95              	.LVL12:
  96              		.loc 1 65 0
  97 0080 9C0406E0 		mul	lr, r0, r4
  98              		.loc 1 54 0
  53:../custom_mdl/onboard_matlab_ert_rtw/onboard_matlab.c ****   absIn_0 = 0U;
  54:../custom_mdl/onboard_matlab_ert_rtw/onboard_matlab.c ****   in0Lo = (productLoHi << 16U) + absIn;
  55:../custom_mdl/onboard_matlab_ert_rtw/onboard_matlab.c ****   if (in0Lo < absIn) {
  56:../custom_mdl/onboard_matlab_ert_rtw/onboard_matlab.c ****     absIn_0 = 1U;
  57:../custom_mdl/onboard_matlab_ert_rtw/onboard_matlab.c ****   }
  58:../custom_mdl/onboard_matlab_ert_rtw/onboard_matlab.c **** 
  59:../custom_mdl/onboard_matlab_ert_rtw/onboard_matlab.c ****   absIn = in0Lo;
  60:../custom_mdl/onboard_matlab_ert_rtw/onboard_matlab.c ****   in0Lo += productHiLo << 16U;
  61:../custom_mdl/onboard_matlab_ert_rtw/onboard_matlab.c ****   if (in0Lo < absIn) {
  62:../custom_mdl/onboard_matlab_ert_rtw/onboard_matlab.c ****     absIn_0++;
  63:../custom_mdl/onboard_matlab_ert_rtw/onboard_matlab.c ****   }
  64:../custom_mdl/onboard_matlab_ert_rtw/onboard_matlab.c **** 
  65:../custom_mdl/onboard_matlab_ert_rtw/onboard_matlab.c ****   absIn = (((productLoHi >> 16U) + (productHiLo >> 16U)) + in0Hi * in1Hi) +
  99              	 r5, asl #16
 100 0084 90040EE0 	.LVL13:
 101              		.loc 1 60 0
 102 0088 051887E0 		add	r0, r1, r6, asl #16
 103              	.LVL14:
 104              		.loc 1 54 0
 105 008c 060881E0 		cmp	r7, r1
 106              		movls	r7, #0
 107              		movhi	r7, #1
 108 0090 010057E1 	.LVL15:
 109 0094 0070A093 		.loc 1 65 0
 110 0098 0170A083 		add	lr, lr, r5, lsr #16
 111              		.loc 1 61 0
 112              		cmp	r1, r0
 113 009c 25E88EE0 		.loc 1 62 0
 114              		addhi	r7, r7, #1
 115 00a0 000051E1 		.loc 1 65 0
 116              		add	r1, lr, r6, lsr #16
 117 00a4 01708782 	.LVL16:
 118              		.loc 1 67 0
 119 00a8 26188EE0 		cmp	r8, #0
 120              		.loc 1 36 0
  66:../custom_mdl/onboard_matlab_ert_rtw/onboard_matlab.c ****     absIn_0;
  67:../custom_mdl/onboard_matlab_ert_rtw/onboard_matlab.c ****   if (!((in0 == 0) || ((in1 == 0) || ((in0 > 0) == (in1 > 0))))) {
 121              	loc 1 65 0
 122 00ac 000058E3 		add	r7, r7, r1
 123              	.LVL18:
 124 00b0 03C0A0E1 		.loc 1 67 0
 125              		beq	.L10
 126              	.LVL19:
 127 00b4 017087E0 		cmp	sl, #0
 128              		beq	.L10
 129              		cmp	sl, #0
 130 00b8 0C00000A 		movle	r3, #0
 131              		movgt	r3, #1
 132 00bc 00005AE3 		cmp	r8, #0
 133 00c0 0A00000A 		eorgt	r3, r3, #1
 134 00c4 00005AE3 		cmp	r3, #0
 135 00c8 0030A0D3 		beq	.L10
 136 00cc 0130A0C3 		.loc 1 70 0
 137 00d0 000058E3 		rsb	r0, r0, #0
 138 00d4 013023C2 		.loc 1 71 0
 139 00d8 000053E3 		cmp	r0, #0
 140 00dc 0300000A 		.loc 1 68 0
  68:../custom_mdl/onboard_matlab_ert_rtw/onboard_matlab.c ****     absIn = ~absIn;
  69:../custom_mdl/onboard_matlab_ert_rtw/onboard_matlab.c ****     in0Lo = ~in0Lo;
  70:../custom_mdl/onboard_matlab_ert_rtw/onboard_matlab.c ****     in0Lo++;
 141              	72 0
 142 00e0 000060E2 		addeq	r7, r7, #1
  71:../custom_mdl/onboard_matlab_ert_rtw/onboard_matlab.c ****     if (in0Lo == 0U) {
 143              	VL20:
 144 00e4 000050E3 	.L10:
 145              		.loc 1 76 0
 146 00e8 0770E0E1 		str	r7, [r2, #0]
  72:../custom_mdl/onboard_matlab_ert_rtw/onboard_matlab.c ****       absIn++;
 147              	c 1 77 0
 148 00ec 01708702 		str	r0, [ip, #0]
 149              		.loc 1 78 0
 150              		ldmfd	sp!, {r4, r5, r6, r7, r8, sl, lr}
  73:../custom_mdl/onboard_matlab_ert_rtw/onboard_matlab.c ****     }
  74:../custom_mdl/onboard_matlab_ert_rtw/onboard_matlab.c ****   }
  75:../custom_mdl/onboard_matlab_ert_rtw/onboard_matlab.c **** 
  76:../custom_mdl/onboard_matlab_ert_rtw/onboard_matlab.c ****   *ptrOutBitsHi = absIn;
 151              	lr
 152 00f0 007082E5 	.LFE3:
  77:../custom_mdl/onboard_matlab_ert_rtw/onboard_matlab.c ****   *ptrOutBitsLo = in0Lo;
 153              	size	mul_wide_s32, .-mul_wide_s32
 154 00f4 00008CE5 		.align	2
  78:../custom_mdl/onboard_matlab_ert_rtw/onboard_matlab.c **** }
 155              	global	mul_s32_s32_s32_sr30
 157 00fc 1EFF2FE1 	mul_s32_s32_s32_sr30:
 158              	.LFB4:
 159              		.loc 1 81 0
 160              		@ Function supports interworking.
 161              		@ args = 0, pretend = 0, frame = 8
 162              		@ frame_needed = 0, uses_anonymous_args = 0
 163              	.LVL21:
 164              		str	lr, [sp, #-4]!
  79:../custom_mdl/onboard_matlab_ert_rtw/onboard_matlab.c **** 
  80:../custom_mdl/onboard_matlab_ert_rtw/onboard_matlab.c **** int32_T mul_s32_s32_s32_sr30(int32_T a, int32_T b)
  81:../custom_mdl/onboard_matlab_ert_rtw/onboard_matlab.c **** {
 165              	ub	sp, sp, #8
 166              	.LCFI3:
 167              		.loc 1 84 0
 168              		add	r3, sp, #4
 169              		mov	r2, sp
 170 0100 04E02DE5 		bl	mul_wide_s32
 171              	.LVL22:
 172 0104 08D04DE2 		ldr	r0, [sp, #4]
 173              	.LVL23:
  82:../custom_mdl/onboard_matlab_ert_rtw/onboard_matlab.c ****   uint32_T u32_chi;
  83:../custom_mdl/onboard_matlab_ert_rtw/onboard_matlab.c ****   uint32_T u32_clo;
  84:../custom_mdl/onboard_matlab_ert_rtw/onboard_matlab.c ****   mul_wide_s32(a, b, &u32_chi, &u32_clo);
 174              	7 0
 175 0108 04308DE2 		ldr	r3, [sp, #0]
 176 010c 0D20A0E1 		.loc 1 84 0
 177 0110 FEFFFFEB 		mov	r0, r0, lsr #30
 178              		.loc 1 87 0
 179 0114 04009DE5 		orr	r0, r0, r3, asl #2
 180              		add	sp, sp, #8
  85:../custom_mdl/onboard_matlab_ert_rtw/onboard_matlab.c ****   u32_clo = u32_chi << 2U | u32_clo >> 30U;
  86:../custom_mdl/onboard_matlab_ert_rtw/onboard_matlab.c ****   return (int32_T)u32_clo;
  87:../custom_mdl/onboard_matlab_ert_rtw/onboard_matlab.c **** }
 181              	, [sp], #4
 182 0118 00309DE5 		bx	lr
 183              	.LFE4:
 185              		.align	2
 186 0120 030180E1 		.global	mul_s32_s32_s32_sr32
 188 0128 04E09DE4 	mul_s32_s32_s32_sr32:
 189 012c 1EFF2FE1 	.LFB5:
 190              		.loc 1 90 0
 191              		@ Function supports interworking.
 192              		@ args = 0, pretend = 0, frame = 8
 193              		@ frame_needed = 0, uses_anonymous_args = 0
 194              	.LVL24:
 195              		str	lr, [sp, #-4]!
 196              	.LCFI4:
  88:../custom_mdl/onboard_matlab_ert_rtw/onboard_matlab.c **** 
  89:../custom_mdl/onboard_matlab_ert_rtw/onboard_matlab.c **** int32_T mul_s32_s32_s32_sr32(int32_T a, int32_T b)
  90:../custom_mdl/onboard_matlab_ert_rtw/onboard_matlab.c **** {
 197              	.LCFI5:
 198              		.loc 1 93 0
 199              		mov	r2, sp
 200              		add	r3, sp, #4
 201              		bl	mul_wide_s32
 202 0130 04E02DE5 	.LVL25:
 203              	.LVL26:
 204 0134 08D04DE2 		.loc 1 95 0
 205              		ldr	r0, [sp, #0]
  91:../custom_mdl/onboard_matlab_ert_rtw/onboard_matlab.c ****   uint32_T u32_chi;
  92:../custom_mdl/onboard_matlab_ert_rtw/onboard_matlab.c ****   uint32_T u32_clo;
  93:../custom_mdl/onboard_matlab_ert_rtw/onboard_matlab.c ****   mul_wide_s32(a, b, &u32_chi, &u32_clo);
 206              	sp, #8
 207 0138 0D20A0E1 		ldr	lr, [sp], #4
 208 013c 04308DE2 		bx	lr
 209 0140 FEFFFFEB 	.LFE5:
 211              		.align	2
  94:../custom_mdl/onboard_matlab_ert_rtw/onboard_matlab.c ****   return (int32_T)u32_chi;
  95:../custom_mdl/onboard_matlab_ert_rtw/onboard_matlab.c **** }
 212              	al	mul_s32_s32_s32_sr28_sat_zero
 214 0148 08D08DE2 	mul_s32_s32_s32_sr28_sat_zero:
 215 014c 04E09DE4 	.LFB6:
 216 0150 1EFF2FE1 		.loc 1 98 0
 217              		@ Function supports interworking.
 218              		@ args = 0, pretend = 0, frame = 8
 219              		@ frame_needed = 0, uses_anonymous_args = 0
 220              	.LVL27:
 221              		str	lr, [sp, #-4]!
 222              	.LCFI6:
 223              		sub	sp, sp, #8
  96:../custom_mdl/onboard_matlab_ert_rtw/onboard_matlab.c **** 
  97:../custom_mdl/onboard_matlab_ert_rtw/onboard_matlab.c **** int32_T mul_s32_s32_s32_sr28_sat_zero(int32_T a, int32_T b)
  98:../custom_mdl/onboard_matlab_ert_rtw/onboard_matlab.c **** {
 224              	c 1 103 0
 225              		mov	r2, sp
 226              		add	r3, sp, #4
 227              		bl	mul_wide_s32
 228              	.LVL28:
 229 0154 04E02DE5 	.LVL29:
 230              		.loc 1 104 0
 231 0158 08D04DE2 		ldr	r2, [sp, #0]
 232              		cmp	r2, #0
  99:../custom_mdl/onboard_matlab_ert_rtw/onboard_matlab.c ****   int32_T result;
 100:../custom_mdl/onboard_matlab_ert_rtw/onboard_matlab.c ****   uint32_T u32_chi;
 101:../custom_mdl/onboard_matlab_ert_rtw/onboard_matlab.c ****   uint32_T u32_clo;
 102:../custom_mdl/onboard_matlab_ert_rtw/onboard_matlab.c ****   boolean_T roundup;
 103:../custom_mdl/onboard_matlab_ert_rtw/onboard_matlab.c ****   mul_wide_s32(a, b, &u32_chi, &u32_clo);
 233              	ldrge	r0, [sp, #4]
 234 015c 0D20A0E1 		blt	.L38
 235 0160 04308DE2 	.LVL31:
 236 0164 FEFFFFEB 	.L21:
 237              		.loc 1 105 0
 238              		mov	r3, r2, asl #4
 104:../custom_mdl/onboard_matlab_ert_rtw/onboard_matlab.c ****   roundup = (((uint32_T)((int32_T)u32_chi < 0)) && (u32_clo & 268435455U));
 239              	0, r3, r0, lsr #28
 240 0168 00209DE5 	.LVL32:
 241 016c 000052E3 		mov	r1, #0
 242              	.L26:
 243 0170 04009DA5 		.loc 1 106 0
 244 0174 130000BA 		add	r3, r1, r2, asr #28
 245              		.loc 1 107 0
 246              		cmp	r3, #0
 105:../custom_mdl/onboard_matlab_ert_rtw/onboard_matlab.c ****   u32_clo = (u32_chi << 4U | u32_clo >> 28U) + roundup;
 247              	9
 248 0178 0232A0E1 	.L27:
 249 017c 200E83E1 		.loc 1 109 0
 250              		mvn	r0, #-2147483648
 251 0180 0010A0E3 	.LVL33:
 252              	.L35:
 106:../custom_mdl/onboard_matlab_ert_rtw/onboard_matlab.c ****   u32_chi = (uint32_T)(roundup && (u32_clo == 0U)) + ((int32_T)u32_chi >> 28);
 253              	:
 254 0184 423E81E0 		.loc 1 117 0
 107:../custom_mdl/onboard_matlab_ert_rtw/onboard_matlab.c ****   if (((int32_T)u32_chi > 0) || ((u32_chi == 0U) && (u32_clo >= 2147483648U))) {
 255              	dd	sp, sp, #8
 256 0188 000053E3 		ldr	lr, [sp], #4
 257 018c 030000DA 		bx	lr
 258              	.L39:
 108:../custom_mdl/onboard_matlab_ert_rtw/onboard_matlab.c ****     result = MAX_int32_T;
 109:../custom_mdl/onboard_matlab_ert_rtw/onboard_matlab.c ****   } else if (((int32_T)u32_chi < -1) || (((int32_T)u32_chi == -1) && (u32_clo <
 259              	c 1 107 0
 260 0190 0201E0E3 		bne	.L29
 261              		cmp	r0, #0
 262              		blt	.L27
 263              	.L29:
 110:../custom_mdl/onboard_matlab_ert_rtw/onboard_matlab.c ****                2147483648U))) {
 111:../custom_mdl/onboard_matlab_ert_rtw/onboard_matlab.c ****     result = MIN_int32_T;
 112:../custom_mdl/onboard_matlab_ert_rtw/onboard_matlab.c ****   } else {
 113:../custom_mdl/onboard_matlab_ert_rtw/onboard_matlab.c ****     result = (int32_T)u32_clo;
 114:../custom_mdl/onboard_matlab_ert_rtw/onboard_matlab.c ****   }
 115:../custom_mdl/onboard_matlab_ert_rtw/onboard_matlab.c **** 
 116:../custom_mdl/onboard_matlab_ert_rtw/onboard_matlab.c ****   return result;
 117:../custom_mdl/onboard_matlab_ert_rtw/onboard_matlab.c **** }
 264              	 1 109 0
 265 0194 08D08DE2 		cmn	r3, #1
 266 0198 04E09DE4 		blt	.L31
 267 019c 1EFF2FE1 		bne	.L35
 268              		cmp	r0, #0
 269              	.LVL35:
 270 01a0 0100001A 		blt	.L35
 271 01a4 000050E3 	.L31:
 272 01a8 F8FFFFBA 		mov	r0, #-2147483648
 273              		b	.L35
 274              	.LVL36:
 275 01ac 010073E3 	.L38:
 276 01b0 020000BA 		.loc 1 104 0
 277 01b4 F6FFFF1A 		ldr	r0, [sp, #4]
 278 01b8 000050E3 		bic	r3, r0, #-268435456
 279              		cmp	r3, #0
 280 01bc F4FFFFBA 		beq	.L21
 281              		.loc 1 105 0
 282 01c0 0201A0E3 		mov	r3, r0, lsr #28
 283 01c4 F2FFFFEA 		orr	r3, r3, r2, asl #4
 284              		.loc 1 106 0
 285              		cmn	r3, #1
 286              		movne	r1, #0
 287 01c8 04009DE5 		moveq	r1, #1
 288 01cc 0F32C0E3 		add	r0, r3, #1
 289 01d0 000053E3 	.LVL37:
 290 01d4 E7FFFF0A 		b	.L26
 291              	.LFE6:
 293 01dc 023283E1 		.align	2
 294              		.global	mul_s32_s32_s32_sr30_sat_zero
 296 01e4 0010A013 	mul_s32_s32_s32_sr30_sat_zero:
 297 01e8 0110A003 	.LFB7:
 298 01ec 010083E2 		.loc 1 120 0
 299              		@ Function supports interworking.
 300 01f0 E3FFFFEA 		@ args = 0, pretend = 0, frame = 8
 301              		@ frame_needed = 0, uses_anonymous_args = 0
 302              	.LVL38:
 303              		str	lr, [sp, #-4]!
 304              	.LCFI8:
 305              		sub	sp, sp, #8
 306              	.LCFI9:
 307              		.loc 1 125 0
 118:../custom_mdl/onboard_matlab_ert_rtw/onboard_matlab.c **** 
 119:../custom_mdl/onboard_matlab_ert_rtw/onboard_matlab.c **** int32_T mul_s32_s32_s32_sr30_sat_zero(int32_T a, int32_T b)
 120:../custom_mdl/onboard_matlab_ert_rtw/onboard_matlab.c **** {
 308              	
 309              	.LVL39:
 310              	.LVL40:
 311              		.loc 1 126 0
 312              		ldr	r2, [sp, #0]
 313 01f4 04E02DE5 		cmp	r2, #0
 314              	.LVL41:
 315 01f8 08D04DE2 		ldrge	r0, [sp, #4]
 316              		blt	.L58
 121:../custom_mdl/onboard_matlab_ert_rtw/onboard_matlab.c ****   int32_T result;
 122:../custom_mdl/onboard_matlab_ert_rtw/onboard_matlab.c ****   uint32_T u32_chi;
 123:../custom_mdl/onboard_matlab_ert_rtw/onboard_matlab.c ****   uint32_T u32_clo;
 124:../custom_mdl/onboard_matlab_ert_rtw/onboard_matlab.c ****   boolean_T roundup;
 125:../custom_mdl/onboard_matlab_ert_rtw/onboard_matlab.c ****   mul_wide_s32(a, b, &u32_chi, &u32_clo);
 317              	.L41:
 318 01fc 0D20A0E1 		.loc 1 127 0
 319 0200 04308DE2 		mov	r3, r2, asl #2
 320 0204 FEFFFFEB 		orr	r0, r3, r0, lsr #30
 321              	.LVL43:
 322              		mov	r1, #0
 126:../custom_mdl/onboard_matlab_ert_rtw/onboard_matlab.c ****   roundup = (((uint32_T)((int32_T)u32_chi < 0)) && (u32_clo & 1073741823U));
 323              		.loc 1 128 0
 324 0208 00209DE5 		add	r3, r1, r2, asr #30
 325 020c 000052E3 		.loc 1 129 0
 326              		cmp	r3, #0
 327 0210 04009DA5 		ble	.L59
 328 0214 130000BA 	.L47:
 329              		.loc 1 131 0
 330              		mvn	r0, #-2147483648
 127:../custom_mdl/onboard_matlab_ert_rtw/onboard_matlab.c ****   u32_clo = (u32_chi << 2U | u32_clo >> 30U) + roundup;
 331              	.L55:
 332 0218 0231A0E1 	.LVL45:
 333 021c 200F83E1 		.loc 1 139 0
 334              		add	sp, sp, #8
 335 0220 0010A0E3 		ldr	lr, [sp], #4
 336              		bx	lr
 128:../custom_mdl/onboard_matlab_ert_rtw/onboard_matlab.c ****   u32_chi = (uint32_T)(roundup && (u32_clo == 0U)) + ((int32_T)u32_chi >> 30);
 337              		.loc 1 129 0
 338 0224 423F81E0 		bne	.L49
 129:../custom_mdl/onboard_matlab_ert_rtw/onboard_matlab.c ****   if (((int32_T)u32_chi > 0) || ((u32_chi == 0U) && (u32_clo >= 2147483648U))) {
 339              	mp	r0, #0
 340 0228 000053E3 		blt	.L47
 341 022c 030000DA 	.L49:
 342              		.loc 1 131 0
 130:../custom_mdl/onboard_matlab_ert_rtw/onboard_matlab.c ****     result = MAX_int32_T;
 131:../custom_mdl/onboard_matlab_ert_rtw/onboard_matlab.c ****   } else if (((int32_T)u32_chi < -1) || (((int32_T)u32_chi == -1) && (u32_clo <
 343              		r3, #1
 344 0230 0201E0E3 		blt	.L51
 345              		bne	.L55
 346              		cmp	r0, #0
 347              	.LVL46:
 132:../custom_mdl/onboard_matlab_ert_rtw/onboard_matlab.c ****                2147483648U))) {
 133:../custom_mdl/onboard_matlab_ert_rtw/onboard_matlab.c ****     result = MIN_int32_T;
 134:../custom_mdl/onboard_matlab_ert_rtw/onboard_matlab.c ****   } else {
 135:../custom_mdl/onboard_matlab_ert_rtw/onboard_matlab.c ****     result = (int32_T)u32_clo;
 136:../custom_mdl/onboard_matlab_ert_rtw/onboard_matlab.c ****   }
 137:../custom_mdl/onboard_matlab_ert_rtw/onboard_matlab.c **** 
 138:../custom_mdl/onboard_matlab_ert_rtw/onboard_matlab.c ****   return result;
 139:../custom_mdl/onboard_matlab_ert_rtw/onboard_matlab.c **** }
 348              	.L55
 349 0234 08D08DE2 	.L51:
 350 0238 04E09DE4 		mov	r0, #-2147483648
 351 023c 1EFF2FE1 		b	.L55
 352              	.LVL47:
 353              	.L58:
 354 0240 0100001A 		.loc 1 126 0
 355 0244 000050E3 		ldr	r0, [sp, #4]
 356 0248 F8FFFFBA 		bic	r3, r0, #-1073741824
 357              		cmp	r3, #0
 358              		beq	.L41
 359 024c 010073E3 		.loc 1 127 0
 360 0250 020000BA 		mov	r3, r0, lsr #30
 361 0254 F6FFFF1A 		orr	r3, r3, r2, asl #2
 362 0258 000050E3 		.loc 1 128 0
 363              		cmn	r3, #1
 364 025c F4FFFFBA 		movne	r1, #0
 365              		moveq	r1, #1
 366 0260 0201A0E3 		add	r0, r3, #1
 367 0264 F2FFFFEA 	.LVL48:
 368              		b	.L46
 369              	.LFE7:
 371 0268 04009DE5 		.align	2
 372 026c 0331C0E3 		.global	mul_s32_s32_s32_sr31_sat_zero
 374 0274 E7FFFF0A 	mul_s32_s32_s32_sr31_sat_zero:
 375              	.LFB8:
 376 0278 203FA0E1 		.loc 1 142 0
 377 027c 023183E1 		@ Function supports interworking.
 378              		@ args = 0, pretend = 0, frame = 8
 379 0280 010073E3 		@ frame_needed = 0, uses_anonymous_args = 0
 380 0284 0010A013 	.LVL49:
 381 0288 0110A003 		str	lr, [sp, #-4]!
 382 028c 010083E2 	.LCFI10:
 383              		sub	sp, sp, #8
 384 0290 E3FFFFEA 	.LCFI11:
 385              		.loc 1 147 0
 386              		mov	r2, sp
 387              		add	r3, sp, #4
 388              		bl	mul_wide_s32
 389              	.LVL50:
 390              	.LVL51:
 391              		.loc 1 148 0
 140:../custom_mdl/onboard_matlab_ert_rtw/onboard_matlab.c **** 
 141:../custom_mdl/onboard_matlab_ert_rtw/onboard_matlab.c **** int32_T mul_s32_s32_s32_sr31_sat_zero(int32_T a, int32_T b)
 142:../custom_mdl/onboard_matlab_ert_rtw/onboard_matlab.c **** {
 392              		r0, [sp, #4]
 393              		blt	.L78
 394              	.LVL53:
 395              	.L61:
 396              		.loc 1 149 0
 397 0294 04E02DE5 		mov	r3, r2, asl #1
 398              		orr	r0, r3, r0, lsr #31
 399 0298 08D04DE2 	.LVL54:
 400              		mov	r1, #0
 143:../custom_mdl/onboard_matlab_ert_rtw/onboard_matlab.c ****   int32_T result;
 144:../custom_mdl/onboard_matlab_ert_rtw/onboard_matlab.c ****   uint32_T u32_chi;
 145:../custom_mdl/onboard_matlab_ert_rtw/onboard_matlab.c ****   uint32_T u32_clo;
 146:../custom_mdl/onboard_matlab_ert_rtw/onboard_matlab.c ****   boolean_T roundup;
 147:../custom_mdl/onboard_matlab_ert_rtw/onboard_matlab.c ****   mul_wide_s32(a, b, &u32_chi, &u32_clo);
 401              	oc 1 150 0
 402 029c 0D20A0E1 		add	r3, r1, r2, asr #31
 403 02a0 04308DE2 		.loc 1 151 0
 404 02a4 FEFFFFEB 		cmp	r3, #0
 405              		ble	.L79
 406              	.L67:
 148:../custom_mdl/onboard_matlab_ert_rtw/onboard_matlab.c ****   roundup = (((uint32_T)((int32_T)u32_chi < 0)) && (u32_clo & 2147483647U));
 407              	1 153 0
 408 02a8 00209DE5 		mvn	r0, #-2147483648
 409 02ac 000052E3 	.LVL55:
 410              	.L75:
 411 02b0 04009DA5 	.LVL56:
 412 02b4 130000BA 		.loc 1 161 0
 413              		add	sp, sp, #8
 414              		ldr	lr, [sp], #4
 149:../custom_mdl/onboard_matlab_ert_rtw/onboard_matlab.c ****   u32_clo = (u32_chi << 1U | u32_clo >> 31U) + roundup;
 415              	L79:
 416 02b8 8230A0E1 		.loc 1 151 0
 417 02bc A00F83E1 		bne	.L69
 418              		cmp	r0, #0
 419 02c0 0010A0E3 		blt	.L67
 420              	.L69:
 150:../custom_mdl/onboard_matlab_ert_rtw/onboard_matlab.c ****   u32_chi = (uint32_T)(roundup && (u32_clo == 0U)) + ((int32_T)u32_chi >> 31);
 421              	1 153 0
 422 02c4 C23F81E0 		cmn	r3, #1
 151:../custom_mdl/onboard_matlab_ert_rtw/onboard_matlab.c ****   if (((int32_T)u32_chi > 0) || ((u32_chi == 0U) && (u32_clo >= 2147483648U))) {
 423              	lt	.L71
 424 02c8 000053E3 		bne	.L75
 425 02cc 030000DA 		cmp	r0, #0
 426              	.LVL57:
 152:../custom_mdl/onboard_matlab_ert_rtw/onboard_matlab.c ****     result = MAX_int32_T;
 153:../custom_mdl/onboard_matlab_ert_rtw/onboard_matlab.c ****   } else if (((int32_T)u32_chi < -1) || (((int32_T)u32_chi == -1) && (u32_clo <
 427              		.L75
 428 02d0 0201E0E3 	.L71:
 429              		mov	r0, #-2147483648
 430              		b	.L75
 431              	.LVL58:
 154:../custom_mdl/onboard_matlab_ert_rtw/onboard_matlab.c ****                2147483648U))) {
 155:../custom_mdl/onboard_matlab_ert_rtw/onboard_matlab.c ****     result = MIN_int32_T;
 156:../custom_mdl/onboard_matlab_ert_rtw/onboard_matlab.c ****   } else {
 157:../custom_mdl/onboard_matlab_ert_rtw/onboard_matlab.c ****     result = (int32_T)u32_clo;
 158:../custom_mdl/onboard_matlab_ert_rtw/onboard_matlab.c ****   }
 159:../custom_mdl/onboard_matlab_ert_rtw/onboard_matlab.c **** 
 160:../custom_mdl/onboard_matlab_ert_rtw/onboard_matlab.c ****   return result;
 161:../custom_mdl/onboard_matlab_ert_rtw/onboard_matlab.c **** }
 432              	
 433 02d4 08D08DE2 		.loc 1 148 0
 434 02d8 04E09DE4 		ldr	r0, [sp, #4]
 435 02dc 1EFF2FE1 		bic	r3, r0, #-2147483648
 436              		cmp	r3, #0
 437              		beq	.L61
 438 02e0 0100001A 		.loc 1 149 0
 439 02e4 000050E3 		mov	r3, r0, lsr #31
 440 02e8 F8FFFFBA 		orr	r3, r3, r2, asl #1
 441              		.loc 1 150 0
 442              		cmn	r3, #1
 443 02ec 010073E3 		movne	r1, #0
 444 02f0 020000BA 		moveq	r1, #1
 445 02f4 F6FFFF1A 		add	r0, r3, #1
 446 02f8 000050E3 	.LVL59:
 447              		b	.L66
 448 02fc F4FFFFBA 	.LFE8:
 450 0300 0201A0E3 		.align	2
 451 0304 F2FFFFEA 		.global	MultiWord2sLong
 453              	MultiWord2sLong:
 454              	.LFB9:
 455 0308 04009DE5 		.loc 1 164 0
 456 030c 0231C0E3 		@ Function supports interworking.
 457 0310 000053E3 		@ args = 0, pretend = 0, frame = 0
 458 0314 E7FFFF0A 		@ frame_needed = 0, uses_anonymous_args = 0
 459              		@ link register save eliminated.
 460 0318 A03FA0E1 	.LVL60:
 461 031c 823083E1 		.loc 1 166 0
 462              		ldr	r0, [r0, #0]
 463 0320 010073E3 	.LVL61:
 464 0324 0010A013 		.loc 1 164 0
 465 0328 0110A003 		@ lr needed for prologue
 466 032c 010083E2 		.loc 1 166 0
 467              		bx	lr
 468 0330 E3FFFFEA 	.LFE9:
 470              		.align	2
 471              		.global	sMultiWordShr
 473              	sMultiWordShr:
 474              	.LFB10:
 475              		.loc 1 170 0
 162:../custom_mdl/onboard_matlab_ert_rtw/onboard_matlab.c **** 
 163:../custom_mdl/onboard_matlab_ert_rtw/onboard_matlab.c **** int32_T MultiWord2sLong(const uint32_T u[])
 164:../custom_mdl/onboard_matlab_ert_rtw/onboard_matlab.c **** {
 476              	= 4, pretend = 0, frame = 0
 477              		@ frame_needed = 0, uses_anonymous_args = 0
 478              	.LVL62:
 479              		stmfd	sp!, {r4, r5, r6, r7, r8, r9, sl, fp, lr}
 480              	.LCFI12:
 481              		.loc 1 170 0
 165:../custom_mdl/onboard_matlab_ert_rtw/onboard_matlab.c ****   return (int32_T)u[0];
 166:../custom_mdl/onboard_matlab_ert_rtw/onboard_matlab.c **** }
 482              	7, r1
 483 0334 000090E5 		.loc 1 182 0
 484              		add	r1, r0, r1, asl #2
 485              	.LVL63:
 486              		.loc 1 170 0
 487              		mov	sl, r0
 488 0338 1EFF2FE1 		.loc 1 182 0
 489              		ldr	r0, [r1, #-4]
 490              	.LVL64:
 491              		.loc 1 180 0
 492              		mov	r1, r2, lsr #5
 493              		.loc 1 182 0
 494              		cmp	r0, #0
 495              		movge	r8, #0
 167:../custom_mdl/onboard_matlab_ert_rtw/onboard_matlab.c **** 
 168:../custom_mdl/onboard_matlab_ert_rtw/onboard_matlab.c **** void sMultiWordShr(const uint32_T u1[], int32_T n1, uint32_T n2, uint32_T y[],
 169:../custom_mdl/onboard_matlab_ert_rtw/onboard_matlab.c ****                    int32_T n)
 170:../custom_mdl/onboard_matlab_ert_rtw/onboard_matlab.c **** {
 496              	.LVL65:
 497              		.loc 1 183 0
 498              		cmp	r1, r7
 499              		.loc 1 170 0
 500              		mov	r5, r3
 501 033c F04F2DE9 		ldr	fp, [sp, #36]
 502              		.loc 1 183 0
 503              		bge	.L86
 504 0340 0170A0E1 	.LVL66:
 171:../custom_mdl/onboard_matlab_ert_rtw/onboard_matlab.c ****   int32_T nb;
 172:../custom_mdl/onboard_matlab_ert_rtw/onboard_matlab.c ****   int32_T i;
 173:../custom_mdl/onboard_matlab_ert_rtw/onboard_matlab.c ****   uint32_T ys;
 174:../custom_mdl/onboard_matlab_ert_rtw/onboard_matlab.c ****   uint32_T yi;
 175:../custom_mdl/onboard_matlab_ert_rtw/onboard_matlab.c ****   uint32_T u1i;
 176:../custom_mdl/onboard_matlab_ert_rtw/onboard_matlab.c ****   int32_T nc;
 177:../custom_mdl/onboard_matlab_ert_rtw/onboard_matlab.c ****   uint32_T nr;
 178:../custom_mdl/onboard_matlab_ert_rtw/onboard_matlab.c ****   uint32_T nl;
 179:../custom_mdl/onboard_matlab_ert_rtw/onboard_matlab.c ****   int32_T i1;
 180:../custom_mdl/onboard_matlab_ert_rtw/onboard_matlab.c ****   nb = (int32_T)(n2 >> 5);
 181:../custom_mdl/onboard_matlab_ert_rtw/onboard_matlab.c ****   i = 0;
 182:../custom_mdl/onboard_matlab_ert_rtw/onboard_matlab.c ****   ys = (u1[n1 - 1] & 2147483648U) != 0U ? MAX_uint32_T : 0U;
 505              	89 0
 506 0344 011180E0 		sub	r6, r2, r1, asl #5
 507              	.LVL67:
 508              		.loc 1 184 0
 509 0348 00A0A0E1 		add	r3, r1, fp
 510              	.LVL68:
 511 034c 040011E5 		cmp	r7, r3
 512              		movlt	r4, r7
 513              		movge	r4, r3
 514 0350 A212A0E1 	.LVL69:
 515              		.loc 1 190 0
 516 0354 000050E3 		cmp	r6, #0
 517 0358 0080A0A3 		beq	.L109
 518 035c 0080E0B3 		.loc 1 193 0
 519              		add	r3, r1, #1
 183:../custom_mdl/onboard_matlab_ert_rtw/onboard_matlab.c ****   if (nb < n1) {
 520              	, r3
 521 0360 070051E1 		.loc 1 192 0
 522              		ldr	r2, [sl, r1, asl #2]
 523 0364 0350A0E1 	.LVL71:
 524 0368 24B09DE5 		.loc 1 191 0
 525              		rsb	r9, r6, #32
 526 036c 270000AA 	.LVL72:
 527              		.loc 1 193 0
 184:../custom_mdl/onboard_matlab_ert_rtw/onboard_matlab.c ****     nc = n + nb;
 185:../custom_mdl/onboard_matlab_ert_rtw/onboard_matlab.c ****     if (nc > n1) {
 186:../custom_mdl/onboard_matlab_ert_rtw/onboard_matlab.c ****       nc = n1;
 187:../custom_mdl/onboard_matlab_ert_rtw/onboard_matlab.c ****     }
 188:../custom_mdl/onboard_matlab_ert_rtw/onboard_matlab.c **** 
 189:../custom_mdl/onboard_matlab_ert_rtw/onboard_matlab.c ****     nr = n2 - ((uint32_T)nb << 5);
 528              	1, #0
 529 0370 816242E0 		movle	ip, #1
 530              	.LVL73:
 531              		ble	.L93
 532 0374 0B3081E0 		add	ip, sl, r1, asl #2
 533              	.LVL74:
 534 0378 030057E1 		mov	lr, #0
 535 037c 0740A0B1 	.LVL75:
 536 0380 0340A0A1 		mov	r1, r3
 537              	.L94:
 190:../custom_mdl/onboard_matlab_ert_rtw/onboard_matlab.c ****     if (nr > (uint32_T)0) {
 538              	4 0
 539 0384 000056E3 		mov	r3, r2, lsr r6
 540 0388 2B00000A 	.LVL76:
 191:../custom_mdl/onboard_matlab_ert_rtw/onboard_matlab.c ****       nl = 32U - nr;
 192:../custom_mdl/onboard_matlab_ert_rtw/onboard_matlab.c ****       u1i = u1[nb];
 193:../custom_mdl/onboard_matlab_ert_rtw/onboard_matlab.c ****       for (i1 = nb + 1; i1 < nc; i1++) {
 541              	oc 1 195 0
 542 038c 013081E2 		ldr	r2, [ip, #4]!
 543              		.loc 1 196 0
 544 0390 030054E1 		orr	r3, r3, r2, asl r9
 545              	.LVL77:
 546 0394 01219AE7 		.loc 1 197 0
 547              		add	r1, r1, #1
 548              		.loc 1 193 0
 549 0398 209066E2 		cmp	r4, r1
 550              		.loc 1 196 0
 551              		str	r3, [r5, lr, asl #2]
 552 039c 0010A0D3 		.loc 1 197 0
 553 03a0 01C0A0D3 		add	lr, lr, #1
 554              		.loc 1 193 0
 555 03a4 0C0000DA 		bgt	.L94
 556 03a8 01C18AE0 		add	ip, lr, #1
 557              	.LVL78:
 558 03ac 00E0A0E3 		mov	r1, lr, asl #2
 559              	.L93:
 560 03b0 0310A0E1 		.loc 1 201 0
 561              		cmp	r7, r4
 194:../custom_mdl/onboard_matlab_ert_rtw/onboard_matlab.c ****         yi = u1i >> nr;
 562              	sl #2]
 563 03b4 3236A0E1 	.LVL79:
 564              		movle	r0, r8
 195:../custom_mdl/onboard_matlab_ert_rtw/onboard_matlab.c ****         u1i = u1[i1];
 565              	oc 1 202 0
 566 03b8 0420BCE5 		mov	r3, r0, asl r9
 196:../custom_mdl/onboard_matlab_ert_rtw/onboard_matlab.c ****         y[i] = u1i << nl | yi;
 567              	rr	r3, r3, r2, lsr r6
 568 03bc 123983E1 		.loc 1 212 0
 569              		cmp	fp, ip
 197:../custom_mdl/onboard_matlab_ert_rtw/onboard_matlab.c ****         i++;
 570              	oc 1 202 0
 571 03c0 011081E2 		str	r3, [r5, r1]
 572              		.loc 1 170 0
 573 03c4 010054E1 		movgt	r2, #0
 574              	.LVL80:
 575 03c8 0E3185E7 		rsbgt	r1, ip, fp
 576              		addgt	r3, r5, ip, asl #2
 577 03cc 01E08EE2 		.loc 1 212 0
 578              		bgt	.L103
 579 03d0 F7FFFFCA 	.L104:
 580 03d4 01C08EE2 		.loc 1 216 0
 581              		ldmfd	sp!, {r4, r5, r6, r7, r8, r9, sl, fp, lr}
 582 03d8 0E11A0E1 		bx	lr
 583              	.LVL81:
 198:../custom_mdl/onboard_matlab_ert_rtw/onboard_matlab.c ****       }
 199:../custom_mdl/onboard_matlab_ert_rtw/onboard_matlab.c **** 
 200:../custom_mdl/onboard_matlab_ert_rtw/onboard_matlab.c ****       yi = u1i >> nr;
 201:../custom_mdl/onboard_matlab_ert_rtw/onboard_matlab.c ****       u1i = nc < n1 ? u1[nc] : ys;
 584              	202 0
 585 03dc 040057E1 		mov	ip, #0
 586 03e0 04019AC7 	.L99:
 587              		.loc 1 212 0
 588 03e4 0800A0D1 		cmp	fp, ip
 202:../custom_mdl/onboard_matlab_ert_rtw/onboard_matlab.c ****       y[i] = u1i << nl | yi;
 589              	t	r1, ip, fp
 590 03e8 1039A0E1 		.loc 1 170 0
 591 03ec 323683E1 		addgt	r3, r5, ip, asl #2
 203:../custom_mdl/onboard_matlab_ert_rtw/onboard_matlab.c ****       i++;
 204:../custom_mdl/onboard_matlab_ert_rtw/onboard_matlab.c ****     } else {
 205:../custom_mdl/onboard_matlab_ert_rtw/onboard_matlab.c ****       for (i1 = nb; i1 < nc; i1++) {
 206:../custom_mdl/onboard_matlab_ert_rtw/onboard_matlab.c ****         y[i] = u1[i1];
 207:../custom_mdl/onboard_matlab_ert_rtw/onboard_matlab.c ****         i++;
 208:../custom_mdl/onboard_matlab_ert_rtw/onboard_matlab.c ****       }
 209:../custom_mdl/onboard_matlab_ert_rtw/onboard_matlab.c ****     }
 210:../custom_mdl/onboard_matlab_ert_rtw/onboard_matlab.c ****   }
 211:../custom_mdl/onboard_matlab_ert_rtw/onboard_matlab.c **** 
 212:../custom_mdl/onboard_matlab_ert_rtw/onboard_matlab.c ****   while (i < n) {
 592              	L82:
 593 03f0 0C005BE1 		movgt	r2, #0
 594              	.LVL83:
 595 03f4 013085E7 		.loc 1 212 0
 596              		ble	.L104
 597 03f8 0020A0C3 	.LVL84:
 598              	.L103:
 599 03fc 0B106CC0 		.loc 1 213 0
 600 0400 0C3185C0 		add	r2, r2, #1
 601              		.loc 1 212 0
 602 0404 070000CA 		cmp	r2, r1
 603              		.loc 1 213 0
 213:../custom_mdl/onboard_matlab_ert_rtw/onboard_matlab.c ****     y[i] = ys;
 214:../custom_mdl/onboard_matlab_ert_rtw/onboard_matlab.c ****     i++;
 215:../custom_mdl/onboard_matlab_ert_rtw/onboard_matlab.c ****   }
 216:../custom_mdl/onboard_matlab_ert_rtw/onboard_matlab.c **** }
 604              	], #4
 605 0408 F04FBDE8 		.loc 1 212 0
 606 040c 1EFF2FE1 		bne	.L103
 607              		b	.L104
 608              	.LVL85:
 609              	.L109:
 610 0410 00C0A0E3 		.loc 1 205 0
 611              		cmp	r1, r4
 612              		.loc 1 212 0
 613 0414 0C005BE1 		addlt	r0, sl, r1, asl #2
 614 0418 0B106CC0 		movlt	ip, r6
 615              	.LVL86:
 616 041c 0C3185C0 		.loc 1 205 0
 617              		bge	.L86
 618 0420 0020A0C3 	.L102:
 619              		.loc 1 206 0
 620              		ldr	r3, [r0], #4
 621 0424 F7FFFFDA 	.LVL87:
 622              		str	r3, [r5, ip, asl #2]
 623              		.loc 1 207 0
 624              		add	ip, ip, #1
 625 0428 012082E2 		.loc 1 205 0
 626              		add	r3, r1, ip
 627 042c 010052E1 		cmp	r4, r3
 628              		bgt	.L102
 629 0430 048083E4 		b	.L99
 630              	.LFE10:
 632 0438 F2FFFFEA 		.align	2
 633              		.global	ssuMultiWordMul
 635              	ssuMultiWordMul:
 636 043c 040051E1 	.LFB11:
 637              		.loc 1 220 0
 638 0440 01018AB0 		@ Function supports interworking.
 639 0444 06C0A0B1 		@ args = 8, pretend = 0, frame = 28
 640              		@ frame_needed = 0, uses_anonymous_args = 0
 641              	.LVL88:
 642 0448 F0FFFFAA 		stmfd	sp!, {r4, r5, r6, r7, r8, r9, sl, fp, lr}
 643              	.LCFI13:
 644              		sub	sp, sp, #28
 645 044c 043090E4 	.LCFI14:
 646              		.loc 1 220 0
 647 0450 0C3185E7 		str	r1, [sp, #8]
 648              		.loc 1 235 0
 649 0454 01C08CE2 		add	r1, r0, r1, asl #2
 650              	.LVL89:
 651 0458 0C3081E0 		.loc 1 220 0
 652 045c 030054E1 		str	r0, [sp, #12]
 653 0460 F9FFFFCA 		.loc 1 235 0
 654 0464 EAFFFFEA 		ldr	r0, [r1, #-4]
 655              	.LVL90:
 656              		.loc 1 239 0
 657              		ldr	r1, [sp, #68]
 658              		.loc 1 235 0
 659              		mov	r0, r0, lsr #31
 660              		.loc 1 239 0
 661              		cmp	r1, #0
 217:../custom_mdl/onboard_matlab_ert_rtw/onboard_matlab.c **** 
 218:../custom_mdl/onboard_matlab_ert_rtw/onboard_matlab.c **** void ssuMultiWordMul(const uint32_T u1[], int32_T n1, const uint32_T u2[],
 219:../custom_mdl/onboard_matlab_ert_rtw/onboard_matlab.c ****                      int32_T n2, uint32_T y[], int32_T n)
 220:../custom_mdl/onboard_matlab_ert_rtw/onboard_matlab.c **** {
 662              	235 0
 663              		str	r0, [sp, #16]
 664              	.LVL91:
 665              		.loc 1 239 0
 666              		ble	.L111
 667 0468 F04F2DE9 	.LVL92:
 668              		mov	r3, #0
 669 046c 1CD04DE2 	.LVL93:
 670              		mov	r2, r3
 671              	.LVL94:
 672 0470 08108DE5 	.L113:
 221:../custom_mdl/onboard_matlab_ert_rtw/onboard_matlab.c ****   int32_T i;
 222:../custom_mdl/onboard_matlab_ert_rtw/onboard_matlab.c ****   int32_T j;
 223:../custom_mdl/onboard_matlab_ert_rtw/onboard_matlab.c ****   int32_T k;
 224:../custom_mdl/onboard_matlab_ert_rtw/onboard_matlab.c ****   int32_T nj;
 225:../custom_mdl/onboard_matlab_ert_rtw/onboard_matlab.c ****   uint32_T u1i;
 226:../custom_mdl/onboard_matlab_ert_rtw/onboard_matlab.c ****   uint32_T yk;
 227:../custom_mdl/onboard_matlab_ert_rtw/onboard_matlab.c ****   uint32_T a;
 228:../custom_mdl/onboard_matlab_ert_rtw/onboard_matlab.c ****   uint32_T a_0;
 229:../custom_mdl/onboard_matlab_ert_rtw/onboard_matlab.c ****   uint32_T b;
 230:../custom_mdl/onboard_matlab_ert_rtw/onboard_matlab.c ****   uint32_T w;
 231:../custom_mdl/onboard_matlab_ert_rtw/onboard_matlab.c ****   uint32_T w_0;
 232:../custom_mdl/onboard_matlab_ert_rtw/onboard_matlab.c ****   uint32_T cb;
 233:../custom_mdl/onboard_matlab_ert_rtw/onboard_matlab.c ****   boolean_T isNegative;
 234:../custom_mdl/onboard_matlab_ert_rtw/onboard_matlab.c ****   uint32_T cb_0;
 235:../custom_mdl/onboard_matlab_ert_rtw/onboard_matlab.c ****   isNegative = ((u1[n1 - 1] & 2147483648U) != 0U);
 673              	 0
 674 0474 011180E0 		ldr	ip, [sp, #64]
 675              		str	r2, [ip, r3, asl #2]
 676              		.loc 1 239 0
 677 0478 0C008DE5 		ldr	r0, [sp, #68]
 678              		add	r3, r3, #1
 679 047c 040011E5 		cmp	r0, r3
 680              		bne	.L113
 236:../custom_mdl/onboard_matlab_ert_rtw/onboard_matlab.c ****   cb_0 = 1U;
 237:../custom_mdl/onboard_matlab_ert_rtw/onboard_matlab.c **** 
 238:../custom_mdl/onboard_matlab_ert_rtw/onboard_matlab.c ****   /* Initialize output to zero */
 239:../custom_mdl/onboard_matlab_ert_rtw/onboard_matlab.c ****   for (k = 0; k < n; k++) {
 681              	.L111:
 682 0480 44109DE5 		.loc 1 243 0
 683              		ldr	r1, [sp, #8]
 684 0484 A00FA0E1 		cmp	r1, #0
 685              		ble	.L114
 686 0488 000051E3 		mov	fp, #0
 687              	.LVL96:
 688 048c 04208DE5 		mov	r2, #1
 689 0490 00308DE5 		str	r2, [sp, #20]
 690              	.LVL97:
 691 0494 10008DE5 		str	fp, [sp, #24]
 692              	.LVL98:
 693              	.L116:
 694 0498 070000DA 		.loc 1 246 0
 695              		ldr	r3, [sp, #16]
 696 049c 0030A0E3 	.LVL99:
 697              		.loc 1 245 0
 698 04a0 0320A0E1 		ldr	ip, [sp, #24]
 699              		ldr	r0, [sp, #12]
 700              		.loc 1 246 0
 240:../custom_mdl/onboard_matlab_ert_rtw/onboard_matlab.c ****     y[k] = 0U;
 701              	245 0
 702 04a4 40C09DE5 		ldr	r2, [ip, r0]
 703 04a8 03218CE7 	.LVL100:
 704              		.loc 1 246 0
 705 04ac 44009DE5 		beq	.L117
 706 04b0 013083E2 		.loc 1 248 0
 707 04b4 030050E1 		ldr	r1, [sp, #20]
 708 04b8 F9FFFF1A 		.loc 1 247 0
 709              		mvn	r3, r2
 710              		.loc 1 248 0
 241:../custom_mdl/onboard_matlab_ert_rtw/onboard_matlab.c ****   }
 242:../custom_mdl/onboard_matlab_ert_rtw/onboard_matlab.c **** 
 243:../custom_mdl/onboard_matlab_ert_rtw/onboard_matlab.c ****   for (i = 0; i < n1; i++) {
 711              	r3, r1
 712 04bc 08109DE5 		movcc	r3, #0
 713 04c0 000051E3 		movcs	r3, #1
 714 04c4 4A0000DA 		str	r3, [sp, #20]
 715 04c8 00B0A0E3 	.L117:
 716              		.loc 1 254 0
 717 04cc 0120A0E3 		ldr	ip, [sp, #68]
 718 04d0 14208DE5 		ldr	sl, [sp, #0]
 719              		rsb	r3, fp, ip
 720 04d4 18B08DE5 		cmp	sl, r3
 721              		movge	sl, r3
 722              		.loc 1 256 0
 244:../custom_mdl/onboard_matlab_ert_rtw/onboard_matlab.c ****     cb = 0U;
 245:../custom_mdl/onboard_matlab_ert_rtw/onboard_matlab.c ****     u1i = u1[i];
 246:../custom_mdl/onboard_matlab_ert_rtw/onboard_matlab.c ****     if (isNegative) {
 723              		.loc 1 252 0
 724 04d8 10309DE5 		mov	r8, r2, asl #16
 725              		mov	r8, r8, lsr #16
 726              		.loc 1 251 0
 727 04dc 18C09DE5 		mov	r9, r2, lsr #16
 728 04e0 0C009DE5 		.loc 1 256 0
 729              		movle	r3, fp
 730 04e4 000053E3 	.LVL101:
 731              		movle	lr, #0
 732 04e8 00209CE7 		ble	.L123
 733              		ldr	r0, [sp, #64]
 734              		ldr	r1, [sp, #24]
 735 04ec 0500000A 		mov	lr, #0
 247:../custom_mdl/onboard_matlab_ert_rtw/onboard_matlab.c ****       u1i = ~u1i + cb_0;
 248:../custom_mdl/onboard_matlab_ert_rtw/onboard_matlab.c ****       cb_0 = u1i < cb_0 ? 1U : 0U;
 736              	r1
 737 04f0 14109DE5 		mov	r7, lr
 738              	.LVL102:
 739 04f4 0230E0E1 	.L124:
 740              		.loc 1 258 0
 741 04f8 012093E0 		ldr	r2, [sp, #4]
 742 04fc 0030A033 	.LVL103:
 743 0500 0130A023 		ldr	r1, [r2, r7, asl #2]
 744 0504 14308DE5 	.LVL104:
 745              		.loc 1 260 0
 249:../custom_mdl/onboard_matlab_ert_rtw/onboard_matlab.c ****     }
 250:../custom_mdl/onboard_matlab_ert_rtw/onboard_matlab.c **** 
 251:../custom_mdl/onboard_matlab_ert_rtw/onboard_matlab.c ****     a = u1i >> 16U;
 252:../custom_mdl/onboard_matlab_ert_rtw/onboard_matlab.c ****     a_0 = u1i & 65535U;
 253:../custom_mdl/onboard_matlab_ert_rtw/onboard_matlab.c ****     k = n - i;
 254:../custom_mdl/onboard_matlab_ert_rtw/onboard_matlab.c ****     nj = n2 <= k ? n2 : k;
 746              	1, asl #16
 747 0508 44C09DE5 	.LVL105:
 748 050c 00A09DE5 		mov	r3, r3, lsr #16
 749 0510 0C306BE0 		.loc 1 265 0
 750 0514 03005AE1 		mul	r0, r3, r8
 751 0518 03A0A0A1 		.loc 1 261 0
 255:../custom_mdl/onboard_matlab_ert_rtw/onboard_matlab.c ****     k = i;
 256:../custom_mdl/onboard_matlab_ert_rtw/onboard_matlab.c ****     for (j = 0; j < nj; j++) {
 752              	4, r3, r9
 753 051c 00005AE3 		.loc 1 259 0
 754              		mov	r1, r1, lsr #16
 755 0520 0288A0E1 	.LVL106:
 756 0524 2888A0E1 		.loc 1 262 0
 757              		mul	r5, r1, r8
 758 0528 2298A0E1 		.loc 1 276 0
 759              		mul	ip, r1, r9
 760 052c 0B30A0D1 	.LVL107:
 761              		.loc 1 257 0
 762 0530 00E0A0D3 		ldr	r2, [r6, #0]
 763 0534 230000DA 	.LVL108:
 764 0538 40009DE5 		.loc 1 263 0
 765 053c 18109DE5 		adds	r2, r2, lr
 766 0540 00E0A0E3 	.LVL109:
 767 0544 016080E0 		movcc	lr, #0
 768 0548 0E70A0E1 		movcs	lr, #1
 769              	.LVL110:
 770              		.loc 1 268 0
 257:../custom_mdl/onboard_matlab_ert_rtw/onboard_matlab.c ****       yk = y[k];
 258:../custom_mdl/onboard_matlab_ert_rtw/onboard_matlab.c ****       u1i = u2[j];
 771              	6
 772 054c 04209DE5 	.LVL111:
 773              		.loc 1 267 0
 774 0550 071192E7 		adds	r2, r2, r0
 775              	.LVL112:
 259:../custom_mdl/onboard_matlab_ert_rtw/onboard_matlab.c ****       b = u1i >> 16U;
 260:../custom_mdl/onboard_matlab_ert_rtw/onboard_matlab.c ****       u1i &= 65535U;
 776              	c	r1, #0
 777 0554 0138A0E1 		movcs	r1, #1
 778              	.LVL113:
 779 0558 2338A0E1 		.loc 1 270 0
 261:../custom_mdl/onboard_matlab_ert_rtw/onboard_matlab.c ****       w = a * u1i;
 262:../custom_mdl/onboard_matlab_ert_rtw/onboard_matlab.c ****       w_0 = a_0 * b;
 263:../custom_mdl/onboard_matlab_ert_rtw/onboard_matlab.c ****       yk += cb;
 264:../custom_mdl/onboard_matlab_ert_rtw/onboard_matlab.c ****       cb = yk < cb ? 1U : 0U;
 265:../custom_mdl/onboard_matlab_ert_rtw/onboard_matlab.c ****       u1i *= a_0;
 780              	s	r2, r2, r3
 781 055c 930800E0 	.LVL114:
 782              		adc	r1, r1, lr
 783 0560 930904E0 	.LVL115:
 784              		.loc 1 271 0
 785 0564 2118A0E1 		mov	r3, r5, asl #16
 786              	.LVL116:
 787              		.loc 1 272 0
 788 0568 910805E0 		add	r2, r2, r3
 266:../custom_mdl/onboard_matlab_ert_rtw/onboard_matlab.c ****       yk += u1i;
 267:../custom_mdl/onboard_matlab_ert_rtw/onboard_matlab.c ****       cb += yk < u1i ? 1U : 0U;
 268:../custom_mdl/onboard_matlab_ert_rtw/onboard_matlab.c ****       u1i = w << 16U;
 269:../custom_mdl/onboard_matlab_ert_rtw/onboard_matlab.c ****       yk += u1i;
 270:../custom_mdl/onboard_matlab_ert_rtw/onboard_matlab.c ****       cb += yk < u1i ? 1U : 0U;
 271:../custom_mdl/onboard_matlab_ert_rtw/onboard_matlab.c ****       u1i = w_0 << 16U;
 272:../custom_mdl/onboard_matlab_ert_rtw/onboard_matlab.c ****       yk += u1i;
 273:../custom_mdl/onboard_matlab_ert_rtw/onboard_matlab.c ****       cb += yk < u1i ? 1U : 0U;
 274:../custom_mdl/onboard_matlab_ert_rtw/onboard_matlab.c ****       y[k] = yk;
 275:../custom_mdl/onboard_matlab_ert_rtw/onboard_matlab.c ****       cb += w >> 16U;
 276:../custom_mdl/onboard_matlab_ert_rtw/onboard_matlab.c ****       cb += w_0 >> 16U;
 789              		.loc 1 273 0
 790 056c 91090CE0 		add	r1, r1, r4, lsr #16
 791              	.LVL118:
 792              		.loc 1 256 0
 793 0570 002096E5 		add	r7, r7, #1
 794              		.loc 1 276 0
 795              		cmp	r3, r2
 796 0574 0E2092E0 		addhi	ip, ip, #1
 797              	.LVL119:
 798 0578 00E0A033 		.loc 1 275 0
 799 057c 01E0A023 		add	r1, r1, r5, lsr #16
 800              	.LVL120:
 801              		.loc 1 256 0
 802 0580 0438A0E1 		cmp	sl, r7
 803              		.loc 1 277 0
 804              		add	lr, r1, ip
 805 0584 002092E0 	.LVL121:
 806              		.loc 1 274 0
 807 0588 0010A033 		str	r2, [r6], #4
 808 058c 0110A023 		.loc 1 256 0
 809              		bne	.L124
 810              		add	r3, sl, fp
 811 0590 032092E0 	.LVL122:
 812              	.L123:
 813 0594 0E10A1E0 		.loc 1 281 0
 814              		ldr	ip, [sp, #68]
 815              	.LVL123:
 816 0598 0538A0E1 		cmp	ip, r3
 817              		.loc 1 282 0
 818              		ldrgt	r0, [sp, #64]
 819 059c 032082E0 	.LVL124:
 820              		.loc 1 243 0
 821              		ldr	r2, [sp, #24]
 822 05a0 241881E0 	.LVL125:
 823              		ldr	r1, [sp, #8]
 824              	.LVL126:
 825 05a4 017087E2 		add	fp, fp, #1
 826              		.loc 1 282 0
 827 05a8 020053E1 		strgt	lr, [r0, r3, asl #2]
 828 05ac 01C08C82 		.loc 1 243 0
 829              		add	r2, r2, #4
 830              		cmp	r1, fp
 831 05b0 251881E0 		str	r2, [sp, #24]
 832              		bne	.L116
 833              	.LVL127:
 834 05b4 07005AE1 	.L114:
 277:../custom_mdl/onboard_matlab_ert_rtw/onboard_matlab.c ****       cb += a * b;
 835              		r3, #0
 836 05b8 0CE081E0 		beq	.L132
 837              		.loc 1 289 0
 838              		ldr	ip, [sp, #68]
 839 05bc 042086E4 		cmp	ip, #0
 840              		ble	.L132
 841 05c0 E1FFFF1A 		mov	r0, #0
 842 05c4 0B308AE0 	.LVL129:
 843              		mov	r1, #1
 844              	.LVL130:
 278:../custom_mdl/onboard_matlab_ert_rtw/onboard_matlab.c ****       k++;
 279:../custom_mdl/onboard_matlab_ert_rtw/onboard_matlab.c ****     }
 280:../custom_mdl/onboard_matlab_ert_rtw/onboard_matlab.c **** 
 281:../custom_mdl/onboard_matlab_ert_rtw/onboard_matlab.c ****     if (k < n) {
 845              	0
 846 05c8 44C09DE5 	.LVL131:
 847              	.L131:
 848 05cc 03005CE1 		.loc 1 290 0
 282:../custom_mdl/onboard_matlab_ert_rtw/onboard_matlab.c ****       y[k] = cb;
 849              		ip, [sp, #64]
 850 05d0 40009DC5 		ldr	r3, [r2, ip]
 851              		.loc 1 289 0
 852              		ldr	ip, [sp, #68]
 853 05d4 18209DE5 		.loc 1 290 0
 854              		mvn	r3, r3
 855 05d8 08109DE5 		add	r3, r3, r1
 856              	.LVL132:
 857 05dc 01B08BE2 		.loc 1 289 0
 858              		add	r0, r0, #1
 859 05e0 03E180C7 		.loc 1 291 0
 860              		cmp	r3, r1
 861 05e4 042082E2 		movcs	r1, #0
 862 05e8 0B0051E1 		movcc	r1, #1
 863 05ec 18208DE5 		.loc 1 289 0
 864 05f0 B8FFFF1A 		cmp	ip, r0
 865              		.loc 1 291 0
 866              		ldr	ip, [sp, #64]
 283:../custom_mdl/onboard_matlab_ert_rtw/onboard_matlab.c ****     }
 284:../custom_mdl/onboard_matlab_ert_rtw/onboard_matlab.c ****   }
 285:../custom_mdl/onboard_matlab_ert_rtw/onboard_matlab.c **** 
 286:../custom_mdl/onboard_matlab_ert_rtw/onboard_matlab.c ****   /* Apply sign */
 287:../custom_mdl/onboard_matlab_ert_rtw/onboard_matlab.c ****   if (isNegative) {
 867              		.loc 1 289 0
 868 05f4 10309DE5 		add	r2, r2, #4
 869              		bne	.L131
 870 05f8 000053E3 	.LVL133:
 871 05fc 1300000A 	.L132:
 288:../custom_mdl/onboard_matlab_ert_rtw/onboard_matlab.c ****     cb = 1U;
 289:../custom_mdl/onboard_matlab_ert_rtw/onboard_matlab.c ****     for (k = 0; k < n; k++) {
 872              	 1 295 0
 873 0600 44C09DE5 		add	sp, sp, #28
 874 0604 00005CE3 		ldmfd	sp!, {r4, r5, r6, r7, r8, r9, sl, fp, lr}
 875 0608 100000DA 		bx	lr
 876 060c 0000A0E3 	.LFE11:
 878 0610 0110A0E3 		.align	2
 879              		.global	sMultiWordMul
 881              	sMultiWordMul:
 882              	.LFB12:
 290:../custom_mdl/onboard_matlab_ert_rtw/onboard_matlab.c ****       yk = ~y[k] + cb;
 883              	 0
 884 0618 40C09DE5 		@ Function supports interworking.
 885 061c 0C3092E7 		@ args = 8, pretend = 0, frame = 36
 886              		@ frame_needed = 0, uses_anonymous_args = 0
 887 0620 44C09DE5 	.LVL134:
 888              		stmfd	sp!, {r4, r5, r6, r7, r8, r9, sl, fp, lr}
 889 0624 0330E0E1 	.LCFI15:
 890 0628 013083E0 		sub	sp, sp, #36
 891              	.LCFI16:
 892              		.loc 1 299 0
 893 062c 010080E2 		str	r3, [sp, #0]
 291:../custom_mdl/onboard_matlab_ert_rtw/onboard_matlab.c ****       y[k] = yk;
 894              	p, #12]
 895 0630 010053E1 		.loc 1 316 0
 896 0634 0010A023 		add	r3, r0, r1, asl #2
 897 0638 0110A033 	.LVL135:
 898              		.loc 1 317 0
 899 063c 00005CE1 		ldr	r0, [sp, #0]
 900              	.LVL136:
 901 0640 40C09DE5 		.loc 1 299 0
 902 0644 0C3082E7 		str	r2, [sp, #4]
 903              		.loc 1 317 0
 904 0648 042082E2 		add	r2, r2, r0, asl #2
 905 064c F1FFFF1A 	.LVL137:
 906              		ldr	r0, [r2, #-4]
 907              		.loc 1 299 0
 292:../custom_mdl/onboard_matlab_ert_rtw/onboard_matlab.c ****       cb = yk < cb ? 1U : 0U;
 293:../custom_mdl/onboard_matlab_ert_rtw/onboard_matlab.c ****     }
 294:../custom_mdl/onboard_matlab_ert_rtw/onboard_matlab.c ****   }
 295:../custom_mdl/onboard_matlab_ert_rtw/onboard_matlab.c **** }
 908              	#8]
 909 0650 1CD08DE2 		.loc 1 321 0
 910 0654 F04FBDE8 		ldr	r2, [sp, #76]
 911 0658 1EFF2FE1 		.loc 1 316 0
 912              		ldr	r1, [r3, #-4]
 913              	.LVL138:
 914              		.loc 1 317 0
 915              		mov	r0, r0, lsr #31
 916              		.loc 1 316 0
 917              		mov	r1, r1, lsr #31
 918              		.loc 1 321 0
 296:../custom_mdl/onboard_matlab_ert_rtw/onboard_matlab.c **** 
 297:../custom_mdl/onboard_matlab_ert_rtw/onboard_matlab.c **** void sMultiWordMul(const uint32_T u1[], int32_T n1, const uint32_T u2[], int32_T
 298:../custom_mdl/onboard_matlab_ert_rtw/onboard_matlab.c ****                    n2, uint32_T y[], int32_T n)
 299:../custom_mdl/onboard_matlab_ert_rtw/onboard_matlab.c **** {
 919              	
 920              		.loc 1 316 0
 921              		str	r1, [sp, #20]
 922              	.LVL139:
 923              		.loc 1 317 0
 924 065c F04F2DE9 		str	r0, [sp, #24]
 925              	.LVL140:
 926 0660 24D04DE2 		.loc 1 321 0
 927              		ble	.L139
 928              	.LVL141:
 929 0664 00308DE5 		mov	r3, #0
 930 0668 0C008DE5 	.LVL142:
 300:../custom_mdl/onboard_matlab_ert_rtw/onboard_matlab.c ****   int32_T i;
 301:../custom_mdl/onboard_matlab_ert_rtw/onboard_matlab.c ****   int32_T j;
 302:../custom_mdl/onboard_matlab_ert_rtw/onboard_matlab.c ****   int32_T k;
 303:../custom_mdl/onboard_matlab_ert_rtw/onboard_matlab.c ****   int32_T nj;
 304:../custom_mdl/onboard_matlab_ert_rtw/onboard_matlab.c ****   uint32_T u1i;
 305:../custom_mdl/onboard_matlab_ert_rtw/onboard_matlab.c ****   uint32_T yk;
 306:../custom_mdl/onboard_matlab_ert_rtw/onboard_matlab.c ****   uint32_T a;
 307:../custom_mdl/onboard_matlab_ert_rtw/onboard_matlab.c ****   uint32_T a_0;
 308:../custom_mdl/onboard_matlab_ert_rtw/onboard_matlab.c ****   uint32_T b;
 309:../custom_mdl/onboard_matlab_ert_rtw/onboard_matlab.c ****   uint32_T w;
 310:../custom_mdl/onboard_matlab_ert_rtw/onboard_matlab.c ****   uint32_T w_0;
 311:../custom_mdl/onboard_matlab_ert_rtw/onboard_matlab.c ****   uint32_T cb;
 312:../custom_mdl/onboard_matlab_ert_rtw/onboard_matlab.c ****   boolean_T isNegative;
 313:../custom_mdl/onboard_matlab_ert_rtw/onboard_matlab.c ****   boolean_T isNegative_0;
 314:../custom_mdl/onboard_matlab_ert_rtw/onboard_matlab.c ****   uint32_T cb_0;
 315:../custom_mdl/onboard_matlab_ert_rtw/onboard_matlab.c ****   uint32_T cb_1;
 316:../custom_mdl/onboard_matlab_ert_rtw/onboard_matlab.c ****   isNegative = ((u1[n1 - 1] & 2147483648U) != 0U);
 931              	
 932 066c 013180E0 	.LVL143:
 933              	.L141:
 317:../custom_mdl/onboard_matlab_ert_rtw/onboard_matlab.c ****   isNegative_0 = ((u2[n2 - 1] & 2147483648U) != 0U);
 934              	loc 1 322 0
 935 0670 00009DE5 		ldr	ip, [sp, #72]
 936              		str	r2, [ip, r3, asl #2]
 937              		.loc 1 321 0
 938 0674 04208DE5 		ldr	r0, [sp, #76]
 939              		add	r3, r3, #1
 940 0678 002182E0 		cmp	r0, r3
 941              		bne	.L141
 942 067c 040012E5 	.LVL144:
 943              	.L139:
 944 0680 08108DE5 		.loc 1 325 0
 318:../custom_mdl/onboard_matlab_ert_rtw/onboard_matlab.c ****   cb_0 = 1U;
 319:../custom_mdl/onboard_matlab_ert_rtw/onboard_matlab.c **** 
 320:../custom_mdl/onboard_matlab_ert_rtw/onboard_matlab.c ****   /* Initialize output to zero */
 321:../custom_mdl/onboard_matlab_ert_rtw/onboard_matlab.c ****   for (k = 0; k < n; k++) {
 945              	p, #8]
 946 0684 4C209DE5 		cmp	r1, #0
 947              		ble	.L142
 948 0688 041013E5 		mov	r2, #0
 949              		mov	r3, #1
 950              	.LVL145:
 951 068c A00FA0E1 		str	r2, [sp, #16]
 952              	.LVL146:
 953 0690 A11FA0E1 		str	r3, [sp, #28]
 954              	.LVL147:
 955 0694 000052E3 		str	r2, [sp, #32]
 956              	.LVL148:
 957 0698 14108DE5 	.L144:
 958              		.loc 1 328 0
 959              		ldr	ip, [sp, #20]
 960 069c 18008DE5 		.loc 1 327 0
 961              		ldr	r0, [sp, #32]
 962              		ldr	r1, [sp, #12]
 963 06a0 070000DA 		.loc 1 328 0
 964              		cmp	ip, #0
 965 06a4 0030A0E3 		.loc 1 327 0
 966              		ldr	r2, [r0, r1]
 967 06a8 0320A0E1 	.LVL149:
 968              		.loc 1 328 0
 969              		beq	.L145
 322:../custom_mdl/onboard_matlab_ert_rtw/onboard_matlab.c ****     y[k] = 0U;
 970              	p, #28]
 971 06ac 48C09DE5 		.loc 1 329 0
 972 06b0 03218CE7 		mvn	r3, r2
 973              		.loc 1 330 0
 974 06b4 4C009DE5 		adds	r2, r3, ip
 975 06b8 013083E2 		movcc	r0, #0
 976 06bc 030050E1 		movcs	r0, #1
 977 06c0 F9FFFF1A 		str	r0, [sp, #28]
 978              	.L145:
 979              		.loc 1 337 0
 323:../custom_mdl/onboard_matlab_ert_rtw/onboard_matlab.c ****   }
 324:../custom_mdl/onboard_matlab_ert_rtw/onboard_matlab.c **** 
 325:../custom_mdl/onboard_matlab_ert_rtw/onboard_matlab.c ****   for (i = 0; i < n1; i++) {
 980              	sp, #16]
 981 06c4 08109DE5 		ldr	r1, [sp, #76]
 982 06c8 000051E3 		ldr	r9, [sp, #0]
 983 06cc 570000DA 		rsb	r3, ip, r1
 984 06d0 0020A0E3 		cmp	r9, r3
 985 06d4 0130A0E3 		movge	r9, r3
 986              		.loc 1 339 0
 987 06d8 10208DE5 		cmp	r9, #0
 988              		.loc 1 334 0
 989 06dc 1C308DE5 		mov	r8, r2, asl #16
 990              		.loc 1 339 0
 991 06e0 20208DE5 		movle	r3, ip
 992              	.LVL150:
 993              		.loc 1 334 0
 326:../custom_mdl/onboard_matlab_ert_rtw/onboard_matlab.c ****     cb = 0U;
 327:../custom_mdl/onboard_matlab_ert_rtw/onboard_matlab.c ****     u1i = u1[i];
 328:../custom_mdl/onboard_matlab_ert_rtw/onboard_matlab.c ****     if (isNegative) {
 994              	sr #16
 995 06e4 14C09DE5 		.loc 1 333 0
 996              		mov	fp, r2, lsr #16
 997 06e8 20009DE5 		.loc 1 339 0
 998 06ec 0C109DE5 		movle	ip, #0
 999              	.LVL151:
 1000 06f0 00005CE3 		ble	.L151
 1001              		ldr	r0, [sp, #72]
 1002 06f4 012090E7 		ldr	r1, [sp, #32]
 1003              		mov	ip, #0
 1004              		add	r6, r0, r1
 1005 06f8 0500000A 		mov	r7, ip
 329:../custom_mdl/onboard_matlab_ert_rtw/onboard_matlab.c ****       u1i = ~u1i + cb_0;
 330:../custom_mdl/onboard_matlab_ert_rtw/onboard_matlab.c ****       cb_0 = u1i < cb_0 ? 1U : 0U;
 1006              	.LVL152:
 1007 06fc 1CC09DE5 	.L152:
 1008              		.loc 1 341 0
 1009 0700 0230E0E1 		ldr	r3, [sp, #4]
 1010              	.LVL153:
 1011 0704 0C2093E0 		.loc 1 342 0
 1012 0708 0000A033 		ldr	r2, [sp, #24]
 1013 070c 0100A023 	.LVL154:
 1014 0710 1C008DE5 		.loc 1 341 0
 1015              		ldr	r5, [r3, r7, asl #2]
 331:../custom_mdl/onboard_matlab_ert_rtw/onboard_matlab.c ****     }
 332:../custom_mdl/onboard_matlab_ert_rtw/onboard_matlab.c **** 
 333:../custom_mdl/onboard_matlab_ert_rtw/onboard_matlab.c ****     a = u1i >> 16U;
 334:../custom_mdl/onboard_matlab_ert_rtw/onboard_matlab.c ****     a_0 = u1i & 65535U;
 335:../custom_mdl/onboard_matlab_ert_rtw/onboard_matlab.c ****     cb_1 = 1U;
 336:../custom_mdl/onboard_matlab_ert_rtw/onboard_matlab.c ****     k = n - i;
 337:../custom_mdl/onboard_matlab_ert_rtw/onboard_matlab.c ****     nj = n2 <= k ? n2 : k;
 1016              	.loc 1 342 0
 1017 0714 10C09DE5 		cmp	r2, #0
 1018 0718 4C109DE5 		.loc 1 339 0
 1019 071c 00909DE5 		add	r7, r7, #1
 1020 0720 01306CE0 		.loc 1 343 0
 1021 0724 030059E1 		mvn	r3, r5
 1022 0728 0390A0A1 		.loc 1 340 0
 338:../custom_mdl/onboard_matlab_ert_rtw/onboard_matlab.c ****     k = i;
 339:../custom_mdl/onboard_matlab_ert_rtw/onboard_matlab.c ****     for (j = 0; j < nj; j++) {
 1023              	, [r6, #0]
 1024 072c 000059E3 	.LVL156:
 1025              		.loc 1 342 0
 1026 0730 0288A0E1 		beq	.L153
 1027              		.loc 1 344 0
 1028 0734 0C30A0D1 		adds	r5, r3, sl
 1029              		movcc	sl, #0
 1030              		movcs	sl, #1
 1031 0738 2888A0E1 	.L153:
 1032              		.loc 1 348 0
 1033 073c 22B8A0E1 		mov	r3, r5, asl #16
 1034              	.LVL157:
 1035 0740 00C0A0D3 		mov	r3, r3, lsr #16
 1036              		.loc 1 353 0
 1037 0744 2C0000DA 		mul	r1, r3, r8
 1038 0748 48009DE5 	.LVL158:
 1039 074c 20109DE5 		.loc 1 347 0
 1040 0750 00C0A0E3 		mov	r5, r5, lsr #16
 1041 0754 016080E0 	.LVL159:
 1042 0758 0C70A0E1 		.loc 1 349 0
 1043 075c 01A0A0E3 		mul	r0, r3, fp
 1044              	.LVL160:
 1045              		.loc 1 350 0
 340:../custom_mdl/onboard_matlab_ert_rtw/onboard_matlab.c ****       yk = y[k];
 341:../custom_mdl/onboard_matlab_ert_rtw/onboard_matlab.c ****       u1i = u2[j];
 1046              	 351 0
 1047 0760 04309DE5 		adds	r2, r2, ip
 1048              	.LVL161:
 342:../custom_mdl/onboard_matlab_ert_rtw/onboard_matlab.c ****       if (isNegative_0) {
 1049              	oc 1 356 0
 1050 0764 18209DE5 		mov	r3, r0, asl #16
 1051              	.LVL162:
 1052              		.loc 1 351 0
 1053 0768 075193E7 		movcc	lr, #0
 1054              		movcs	lr, #1
 1055              		.loc 1 355 0
 1056 076c 000052E3 		adds	r2, r2, r1
 1057              	.LVL163:
 1058 0770 017087E2 		.loc 1 359 0
 343:../custom_mdl/onboard_matlab_ert_rtw/onboard_matlab.c ****         u1i = ~u1i + cb_1;
 1059              	4, asl #16
 1060 0774 0530E0E1 	.LVL164:
 1061              		.loc 1 355 0
 1062 0778 002096E5 		movcc	r1, #0
 1063              		movcs	r1, #1
 1064              	.LVL165:
 1065 077c 0200000A 		.loc 1 358 0
 344:../custom_mdl/onboard_matlab_ert_rtw/onboard_matlab.c ****         cb_1 = u1i < cb_1 ? 1U : 0U;
 1066              	2, r2, r3
 1067 0780 0A5093E0 	.LVL166:
 1068 0784 00A0A033 		.loc 1 360 0
 1069 0788 01A0A023 		add	r2, r2, ip
 1070              	.LVL167:
 345:../custom_mdl/onboard_matlab_ert_rtw/onboard_matlab.c ****       }
 346:../custom_mdl/onboard_matlab_ert_rtw/onboard_matlab.c **** 
 347:../custom_mdl/onboard_matlab_ert_rtw/onboard_matlab.c ****       b = u1i >> 16U;
 348:../custom_mdl/onboard_matlab_ert_rtw/onboard_matlab.c ****       u1i &= 65535U;
 1071              	 1 361 0
 1072 078c 0538A0E1 		mov	r0, r0, lsr #16
 1073              	.LVL168:
 1074 0790 2338A0E1 		.loc 1 358 0
 349:../custom_mdl/onboard_matlab_ert_rtw/onboard_matlab.c ****       w = a * u1i;
 350:../custom_mdl/onboard_matlab_ert_rtw/onboard_matlab.c ****       w_0 = a_0 * b;
 351:../custom_mdl/onboard_matlab_ert_rtw/onboard_matlab.c ****       yk += cb;
 352:../custom_mdl/onboard_matlab_ert_rtw/onboard_matlab.c ****       cb = yk < cb ? 1U : 0U;
 353:../custom_mdl/onboard_matlab_ert_rtw/onboard_matlab.c ****       u1i *= a_0;
 1075              		r1, r1, lr
 1076 0794 930801E0 	.LVL169:
 1077              		.loc 1 361 0
 1078              		cmp	ip, r2
 1079 0798 2558A0E1 		addhi	r0, r0, #1
 1080              	.LVL170:
 1081              		.loc 1 364 0
 1082 079c 930B00E0 		mla	r3, r5, fp, r0
 1083              	.LVL171:
 1084              		.loc 1 363 0
 1085 07a0 950804E0 		add	r1, r1, r4, lsr #16
 1086              	.LVL172:
 1087 07a4 0C2092E0 		.loc 1 339 0
 1088              		cmp	r9, r7
 354:../custom_mdl/onboard_matlab_ert_rtw/onboard_matlab.c ****       yk += u1i;
 355:../custom_mdl/onboard_matlab_ert_rtw/onboard_matlab.c ****       cb += yk < u1i ? 1U : 0U;
 356:../custom_mdl/onboard_matlab_ert_rtw/onboard_matlab.c ****       u1i = w << 16U;
 1089              		add	ip, r1, r3
 1090 07a8 0038A0E1 	.LVL173:
 1091              		.loc 1 362 0
 1092              		str	r2, [r6], #4
 1093 07ac 00E0A033 		.loc 1 339 0
 1094 07b0 01E0A023 		bne	.L152
 1095              		ldr	r0, [sp, #16]
 1096 07b4 012092E0 	.LVL174:
 1097              		add	r3, r0, r9
 357:../custom_mdl/onboard_matlab_ert_rtw/onboard_matlab.c ****       yk += u1i;
 358:../custom_mdl/onboard_matlab_ert_rtw/onboard_matlab.c ****       cb += yk < u1i ? 1U : 0U;
 359:../custom_mdl/onboard_matlab_ert_rtw/onboard_matlab.c ****       u1i = w_0 << 16U;
 1098              	.L151:
 1099 07b8 04C8A0E1 		.loc 1 369 0
 1100              		ldr	r1, [sp, #76]
 1101              	.LVL176:
 1102 07bc 0010A033 		cmp	r1, r3
 1103 07c0 0110A023 		.loc 1 370 0
 1104              		ldrgt	r2, [sp, #72]
 1105              	.LVL177:
 1106 07c4 032092E0 		strgt	ip, [r2, r3, asl #2]
 1107              		.loc 1 325 0
 360:../custom_mdl/onboard_matlab_ert_rtw/onboard_matlab.c ****       yk += u1i;
 1108              	sp, #16]
 1109 07c8 0C2082E0 	.LVL178:
 1110              		ldr	r0, [sp, #32]
 361:../custom_mdl/onboard_matlab_ert_rtw/onboard_matlab.c ****       cb += yk < u1i ? 1U : 0U;
 1111              	r	ip, [sp, #8]
 1112 07cc 2008A0E1 	.LVL179:
 1113              		add	r3, r3, #1
 1114              		add	r0, r0, #4
 1115 07d0 0E10A1E0 		cmp	ip, r3
 1116              		str	r3, [sp, #16]
 1117              		str	r0, [sp, #32]
 1118 07d4 02005CE1 		bne	.L144
 1119 07d8 01008082 	.LVL180:
 1120              	.L142:
 362:../custom_mdl/onboard_matlab_ert_rtw/onboard_matlab.c ****       y[k] = yk;
 363:../custom_mdl/onboard_matlab_ert_rtw/onboard_matlab.c ****       cb += w >> 16U;
 364:../custom_mdl/onboard_matlab_ert_rtw/onboard_matlab.c ****       cb += w_0 >> 16U;
 1121              	5 0
 1122 07dc 950B23E0 		add	r1, sp, #20
 1123              		ldmia	r1, {r1, r2}	@ phole ldm
 1124              		cmp	r1, r2
 1125 07e0 241881E0 		beq	.L164
 1126              		.loc 1 377 0
 1127              		ldr	r3, [sp, #76]
 1128 07e4 070059E1 	.LVL181:
 365:../custom_mdl/onboard_matlab_ert_rtw/onboard_matlab.c ****       cb += a * b;
 1129              	 #0
 1130 07e8 03C081E0 		ble	.L164
 1131              		mov	r0, #0
 1132              	.LVL182:
 1133 07ec 042086E4 		mov	r1, #1
 1134              	.LVL183:
 1135 07f0 DAFFFF1A 		mov	r2, r0
 1136 07f4 10009DE5 	.L163:
 1137              		.loc 1 378 0
 1138 07f8 093080E0 		ldr	ip, [sp, #72]
 1139              		ldr	r3, [r2, ip]
 1140              		.loc 1 377 0
 366:../custom_mdl/onboard_matlab_ert_rtw/onboard_matlab.c ****       k++;
 367:../custom_mdl/onboard_matlab_ert_rtw/onboard_matlab.c ****     }
 368:../custom_mdl/onboard_matlab_ert_rtw/onboard_matlab.c **** 
 369:../custom_mdl/onboard_matlab_ert_rtw/onboard_matlab.c ****     if (k < n) {
 1141              	, #76]
 1142 07fc 4C109DE5 		.loc 1 378 0
 1143              		mvn	r3, r3
 1144 0800 030051E1 		add	r3, r3, r1
 370:../custom_mdl/onboard_matlab_ert_rtw/onboard_matlab.c ****       y[k] = cb;
 1145              	184:
 1146 0804 48209DC5 		.loc 1 377 0
 1147              		add	r0, r0, #1
 1148 0808 03C182C7 		.loc 1 379 0
 1149              		cmp	r3, r1
 1150 080c 10309DE5 		movcs	r1, #0
 1151              		movcc	r1, #1
 1152 0810 20009DE5 		.loc 1 377 0
 1153 0814 08C09DE5 		cmp	ip, r0
 1154              		.loc 1 379 0
 1155 0818 013083E2 		ldr	ip, [sp, #72]
 1156 081c 040080E2 		str	r3, [r2, ip]
 1157 0820 03005CE1 		.loc 1 377 0
 1158 0824 10308DE5 		add	r2, r2, #4
 1159 0828 20008DE5 		bne	.L163
 1160 082c ACFFFF1A 	.LVL185:
 1161              	.L164:
 1162              		.loc 1 383 0
 371:../custom_mdl/onboard_matlab_ert_rtw/onboard_matlab.c ****     }
 372:../custom_mdl/onboard_matlab_ert_rtw/onboard_matlab.c ****   }
 373:../custom_mdl/onboard_matlab_ert_rtw/onboard_matlab.c **** 
 374:../custom_mdl/onboard_matlab_ert_rtw/onboard_matlab.c ****   /* Apply sign */
 375:../custom_mdl/onboard_matlab_ert_rtw/onboard_matlab.c ****   if (isNegative != isNegative_0) {
 1163              	ldmfd	sp!, {r4, r5, r6, r7, r8, r9, sl, fp, lr}
 1164 0830 14108DE2 		bx	lr
 1165 0834 060091E8 	.LFE12:
 1167 083c 1300000A 		.align	2
 376:../custom_mdl/onboard_matlab_ert_rtw/onboard_matlab.c ****     cb = 1U;
 377:../custom_mdl/onboard_matlab_ert_rtw/onboard_matlab.c ****     for (k = 0; k < n; k++) {
 1168              	bal	sMultiWord2sMultiWordSat
 1170              	sMultiWord2sMultiWordSat:
 1171 0844 000053E3 	.LFB13:
 1172 0848 100000DA 		.loc 1 387 0
 1173 084c 0000A0E3 		@ Function supports interworking.
 1174              		@ args = 0, pretend = 0, frame = 0
 1175 0850 0110A0E3 		@ frame_needed = 0, uses_anonymous_args = 0
 1176              	.LVL186:
 1177 0854 0020A0E1 		.loc 1 393 0
 1178              		sub	ip, r1, #1
 378:../custom_mdl/onboard_matlab_ert_rtw/onboard_matlab.c ****       yk = ~y[k] + cb;
 1179              	loc 1 387 0
 1180 0858 48C09DE5 		stmfd	sp!, {r4, r5, r6, r7, r8, lr}
 1181 085c 0C3092E7 	.LCFI17:
 1182              		.loc 1 394 0
 1183 0860 4CC09DE5 		ldr	lr, [r0, ip, asl #2]
 1184              		cmp	lr, #0
 1185 0864 0330E0E1 		movge	r5, #0
 1186 0868 013083E0 		mvnlt	r5, #0
 1187              	.LVL188:
 1188              		.loc 1 395 0
 1189 086c 010080E2 		cmp	r3, r1
 379:../custom_mdl/onboard_matlab_ert_rtw/onboard_matlab.c ****       y[k] = yk;
 1190              	 0
 1191 0870 010053E1 		mov	r4, r3
 1192 0874 0010A023 		mov	r6, r2
 1193 0878 0110A033 		.loc 1 395 0
 1194              		bge	.L174
 1195 087c 00005CE1 	.LVL189:
 1196              		.loc 1 392 0
 1197 0880 48C09DE5 		sub	r7, r3, #1
 1198 0884 0C3082E7 	.LVL190:
 1199              		.loc 1 396 0
 1200 0888 042082E2 		mov	r8, r7, asl #2
 1201 088c F1FFFF1A 		ldr	r3, [r0, r8]
 1202              		eor	r3, lr, r3
 1203              		.loc 1 397 0
 380:../custom_mdl/onboard_matlab_ert_rtw/onboard_matlab.c ****       cb = yk < cb ? 1U : 0U;
 381:../custom_mdl/onboard_matlab_ert_rtw/onboard_matlab.c ****     }
 382:../custom_mdl/onboard_matlab_ert_rtw/onboard_matlab.c ****   }
 383:../custom_mdl/onboard_matlab_ert_rtw/onboard_matlab.c **** }
 1204              	ov	r2, r2, lsr #31
 1205 0890 24D08DE2 		cmp	r4, ip
 1206 0894 F04FBDE8 		movgt	r2, #0
 1207 0898 1EFF2FE1 		cmp	r2, #0
 1208              		mov	r2, r3, lsr #31
 1209              	.LVL191:
 1210              		beq	.L176
 1211              		add	lr, r0, r1, asl #2
 1212              	.L178:
 1213              		.loc 1 398 0
 1214              		ldr	r3, [lr, #-4]!
 384:../custom_mdl/onboard_matlab_ert_rtw/onboard_matlab.c **** 
 385:../custom_mdl/onboard_matlab_ert_rtw/onboard_matlab.c **** void sMultiWord2sMultiWordSat(const uint32_T u1[], int32_T n1, uint32_T y[],
 386:../custom_mdl/onboard_matlab_ert_rtw/onboard_matlab.c ****   int32_T n)
 387:../custom_mdl/onboard_matlab_ert_rtw/onboard_matlab.c **** {
 1215              	3, r5
 1216              		movne	r2, #1
 1217              		.loc 1 399 0
 1218              		sub	ip, ip, #1
 1219              		.loc 1 397 0
 388:../custom_mdl/onboard_matlab_ert_rtw/onboard_matlab.c ****   int32_T nm;
 389:../custom_mdl/onboard_matlab_ert_rtw/onboard_matlab.c ****   uint32_T ys;
 390:../custom_mdl/onboard_matlab_ert_rtw/onboard_matlab.c ****   int32_T n1m1;
 391:../custom_mdl/onboard_matlab_ert_rtw/onboard_matlab.c ****   boolean_T doSaturation = FALSE;
 392:../custom_mdl/onboard_matlab_ert_rtw/onboard_matlab.c ****   nm = n - 1;
 393:../custom_mdl/onboard_matlab_ert_rtw/onboard_matlab.c ****   n1m1 = n1 - 1;
 1220              	r3, r2, #1
 1221 089c 01C041E2 		cmp	r4, ip
 1222              		movgt	r3, #0
 1223              		andle	r3, r3, #1
 1224 08a0 F0412DE9 		cmp	r3, #0
 1225              		bne	.L178
 394:../custom_mdl/onboard_matlab_ert_rtw/onboard_matlab.c ****   ys = (u1[n1m1] & 2147483648U) != 0U ? MAX_uint32_T : 0U;
 1226              	
 1227 08a4 0CE190E7 		.loc 1 403 0
 1228 08a8 00005EE3 		cmp	r2, #0
 1229 08ac 0050A0A3 		bne	.L200
 1230 08b0 0050E0B3 	.LVL192:
 1231              	.L174:
 395:../custom_mdl/onboard_matlab_ert_rtw/onboard_matlab.c ****   if (n1 > n) {
 1232              	 1 411 0
 1233 08b4 010053E1 		cmp	r4, r1
 1234              		movlt	r1, r4
 1235 08b8 0340A0E1 	.LVL193:
 1236 08bc 0260A0E1 		.loc 1 412 0
 1237              		cmp	r1, #0
 1238 08c0 170000AA 		movle	r1, #0
 1239              	.LVL194:
 1240              		ble	.L188
 1241 08c4 017043E2 		mov	ip, #0
 1242              	.LVL195:
 396:../custom_mdl/onboard_matlab_ert_rtw/onboard_matlab.c ****     doSaturation = (((u1[n1m1] ^ u1[nm]) & 2147483648U) != 0U);
 1243              	
 1244 08c8 0781A0E1 	.LVL196:
 1245 08cc 083090E7 	.L189:
 1246 08d0 03302EE0 		.loc 1 413 0
 397:../custom_mdl/onboard_matlab_ert_rtw/onboard_matlab.c ****     while ((!doSaturation) && (n1m1 >= n)) {
 1247              	r	r3, [r2, r0]
 1248 08d4 0320E0E1 		.loc 1 412 0
 1249 08d8 A22FA0E1 		add	ip, ip, #1
 1250 08dc 0C0054E1 	.LVL197:
 1251 08e0 0020A0C3 		cmp	r1, ip
 1252 08e4 000052E3 		.loc 1 413 0
 1253 08e8 A32FA0E1 		str	r3, [r2, r6]
 1254              		.loc 1 412 0
 1255 08ec 0A00000A 		add	r2, r2, #4
 1256 08f0 01E180E0 		bne	.L189
 1257              	.LVL198:
 398:../custom_mdl/onboard_matlab_ert_rtw/onboard_matlab.c ****       doSaturation = (u1[n1m1] != ys);
 1258              	199:
 1259 08f4 04303EE5 		.loc 1 416 0
 1260 08f8 052053E0 		cmp	r4, r1
 1261 08fc 0120A013 		ble	.L193
 399:../custom_mdl/onboard_matlab_ert_rtw/onboard_matlab.c ****       n1m1--;
 1262              		r3, r1, r4
 1263 0900 01C04CE2 		.loc 1 387 0
 1264              		mov	r0, #0
 1265 0904 013022E2 	.LVL200:
 1266 0908 0C0054E1 		add	r1, r6, r1, asl #2
 1267 090c 0030A0C3 	.LVL201:
 1268 0910 013003D2 	.L192:
 1269 0914 000053E3 		.loc 1 417 0
 1270 0918 F5FFFF1A 		add	r0, r0, #1
 1271              		.loc 1 416 0
 400:../custom_mdl/onboard_matlab_ert_rtw/onboard_matlab.c ****     }
 401:../custom_mdl/onboard_matlab_ert_rtw/onboard_matlab.c ****   }
 402:../custom_mdl/onboard_matlab_ert_rtw/onboard_matlab.c **** 
 403:../custom_mdl/onboard_matlab_ert_rtw/onboard_matlab.c ****   if (doSaturation) {
 1272              	3
 1273 091c 000052E3 		.loc 1 417 0
 1274 0920 1700001A 		str	r5, [r1], #4
 1275              		.loc 1 416 0
 1276              		bne	.L192
 404:../custom_mdl/onboard_matlab_ert_rtw/onboard_matlab.c ****     ys = ~ys;
 405:../custom_mdl/onboard_matlab_ert_rtw/onboard_matlab.c ****     for (n1m1 = 0; n1m1 < nm; n1m1++) {
 406:../custom_mdl/onboard_matlab_ert_rtw/onboard_matlab.c ****       y[n1m1] = ys;
 407:../custom_mdl/onboard_matlab_ert_rtw/onboard_matlab.c ****     }
 408:../custom_mdl/onboard_matlab_ert_rtw/onboard_matlab.c **** 
 409:../custom_mdl/onboard_matlab_ert_rtw/onboard_matlab.c ****     y[n1m1] = ys ^ 2147483648U;
 410:../custom_mdl/onboard_matlab_ert_rtw/onboard_matlab.c ****   } else {
 411:../custom_mdl/onboard_matlab_ert_rtw/onboard_matlab.c ****     nm = n1 < n ? n1 : n;
 1277              	02:
 1278 0924 010054E1 	.L193:
 1279 0928 0410A0B1 		.loc 1 421 0
 1280              		ldmfd	sp!, {r4, r5, r6, r7, r8, lr}
 412:../custom_mdl/onboard_matlab_ert_rtw/onboard_matlab.c ****     for (n1m1 = 0; n1m1 < nm; n1m1++) {
 1281              	lr
 1282 092c 000051E3 	.LVL203:
 1283 0930 0010A0D3 	.L200:
 1284              		.loc 1 405 0
 1285 0934 070000DA 		cmp	r7, #0
 1286 0938 00C0A0E3 		.loc 1 404 0
 1287              		mvn	r3, r5
 1288 093c 0C20A0E1 	.LVL204:
 1289              		.loc 1 405 0
 1290              		movle	r2, #0
 413:../custom_mdl/onboard_matlab_ert_rtw/onboard_matlab.c ****       y[n1m1] = u1[n1m1];
 1291              	ble	.L182
 1292 0940 003092E7 		mov	r0, #1
 1293              	.LVL206:
 1294 0944 01C08CE2 		mov	r2, #0
 1295              	.L183:
 1296 0948 0C0051E1 		.loc 1 406 0
 1297              		add	r0, r0, #1
 1298 094c 063082E7 		.loc 1 405 0
 1299              		cmp	r0, r4
 1300 0950 042082E2 		.loc 1 406 0
 1301 0954 F9FFFF1A 		str	r3, [r2, r6]
 1302              		add	r2, r2, #4
 1303              		.loc 1 405 0
 1304              		bne	.L183
 414:../custom_mdl/onboard_matlab_ert_rtw/onboard_matlab.c ****     }
 415:../custom_mdl/onboard_matlab_ert_rtw/onboard_matlab.c **** 
 416:../custom_mdl/onboard_matlab_ert_rtw/onboard_matlab.c ****     while (n1m1 < n) {
 1305              	VL207:
 1306 0958 010054E1 	.L182:
 1307 095c 060000DA 		.loc 1 409 0
 1308 0960 043061E0 		add	r3, r3, #-2147483648
 1309              	.LVL208:
 1310 0964 0000A0E3 		str	r3, [r6, r2]
 1311              		b	.L193
 1312 0968 011186E0 	.LFE13:
 1314              		.align	2
 417:../custom_mdl/onboard_matlab_ert_rtw/onboard_matlab.c ****       y[n1m1] = ys;
 1315              	ultiWordAdd
 1317              	MultiWordAdd:
 1318 0970 030050E1 	.LFB14:
 1319              		.loc 1 425 0
 1320 0974 045081E4 		@ Function supports interworking.
 1321              		@ args = 0, pretend = 0, frame = 0
 1322 0978 FBFFFF1A 		@ frame_needed = 0, uses_anonymous_args = 0
 1323              	.LVL209:
 1324              		stmfd	sp!, {r4, r5, r6, r7, lr}
 418:../custom_mdl/onboard_matlab_ert_rtw/onboard_matlab.c ****       n1m1++;
 419:../custom_mdl/onboard_matlab_ert_rtw/onboard_matlab.c ****     }
 420:../custom_mdl/onboard_matlab_ert_rtw/onboard_matlab.c ****   }
 421:../custom_mdl/onboard_matlab_ert_rtw/onboard_matlab.c **** }
 1325              	.loc 1 430 0
 1326 097c F041BDE8 		subs	r7, r3, #0
 1327 0980 1EFF2FE1 		.loc 1 425 0
 1328              		mov	r6, r0
 1329              		mov	r5, r1
 1330              		mov	r4, r2
 1331 0984 000057E3 		.loc 1 430 0
 1332              		ble	.L208
 1333 0988 0530E0E1 	.LVL210:
 1334              		mov	r0, #0
 1335              	.LVL211:
 1336 098c 0020A0D3 		mov	r1, r0
 1337              	.LVL212:
 1338 0990 070000DA 		mov	lr, r0
 1339 0994 0100A0E3 		b	.L204
 1340              	.LVL213:
 1341 0998 0020A0E3 	.L210:
 1342              		add	r0, r0, #1
 1343              		.loc 1 434 0
 1344 099c 010080E2 		cmp	ip, r3
 1345              		movcc	r1, #0
 1346 09a0 040050E1 		movcs	r1, #1
 1347              		.loc 1 430 0
 1348 09a4 063082E7 		cmp	r7, r0
 1349 09a8 042082E2 		add	lr, lr, #4
 1350              		beq	.L208
 1351 09ac FAFFFF1A 	.LVL214:
 1352 09b0 0820A0E1 	.L204:
 1353              		.loc 1 431 0
 1354              		ldr	ip, [lr, r6]
 1355              		.loc 1 432 0
 1356 09b4 023183E2 		ldr	r2, [lr, r5]
 1357              		add	r3, ip, r1
 1358 09b8 023086E7 	.LVL215:
 1359 09bc EEFFFFEA 		add	r3, r3, r2
 1360              	.LVL216:
 1361              		.loc 1 434 0
 1362              		cmp	r1, #0
 1363              		.loc 1 433 0
 1364              		str	r3, [lr, r4]
 1365              		.loc 1 434 0
 1366              		bne	.L210
 422:../custom_mdl/onboard_matlab_ert_rtw/onboard_matlab.c **** 
 423:../custom_mdl/onboard_matlab_ert_rtw/onboard_matlab.c **** void MultiWordAdd(const uint32_T u1[], const uint32_T u2[], uint32_T y[],
 424:../custom_mdl/onboard_matlab_ert_rtw/onboard_matlab.c ****                   int32_T n)
 425:../custom_mdl/onboard_matlab_ert_rtw/onboard_matlab.c **** {
 1367              	0
 1368              		cmp	ip, r3
 1369              		movls	r1, #0
 1370              		movhi	r1, #1
 1371              		.loc 1 430 0
 1372 09c0 F0402DE9 		cmp	r7, r0
 1373              		add	lr, lr, #4
 426:../custom_mdl/onboard_matlab_ert_rtw/onboard_matlab.c ****   uint32_T yi;
 427:../custom_mdl/onboard_matlab_ert_rtw/onboard_matlab.c ****   uint32_T u1i;
 428:../custom_mdl/onboard_matlab_ert_rtw/onboard_matlab.c ****   uint32_T carry = 0U;
 429:../custom_mdl/onboard_matlab_ert_rtw/onboard_matlab.c ****   int32_T i;
 430:../custom_mdl/onboard_matlab_ert_rtw/onboard_matlab.c ****   for (i = 0; i < n; i++) {
 1374              	204
 1375 09c4 007053E2 	.LVL217:
 1376              	.L208:
 1377 09c8 0060A0E1 		.loc 1 436 0
 1378 09cc 0150A0E1 		ldmfd	sp!, {r4, r5, r6, r7, lr}
 1379 09d0 0240A0E1 		bx	lr
 1380              	.LFE14:
 1382              		.align	2
 1383 09d8 0000A0E3 		.global	sMultiWord2MultiWord
 1385 09dc 0010A0E1 	sMultiWord2MultiWord:
 1386              	.LFB15:
 1387 09e0 00E0A0E1 		.loc 1 440 0
 1388 09e4 060000EA 		@ Function supports interworking.
 1389              		@ args = 0, pretend = 0, frame = 0
 1390              		@ frame_needed = 0, uses_anonymous_args = 0
 1391 09e8 010080E2 	.LVL218:
 431:../custom_mdl/onboard_matlab_ert_rtw/onboard_matlab.c ****     u1i = u1[i];
 432:../custom_mdl/onboard_matlab_ert_rtw/onboard_matlab.c ****     yi = (u1i + u2[i]) + carry;
 433:../custom_mdl/onboard_matlab_ert_rtw/onboard_matlab.c ****     y[i] = yi;
 434:../custom_mdl/onboard_matlab_ert_rtw/onboard_matlab.c ****     carry = carry != 0U ? yi <= u1i ? 1U : 0U : yi < u1i ? 1U : 0U;
 1392              	5, lr}
 1393 09ec 03005CE1 	.LCFI19:
 1394 09f0 0010A033 		.loc 1 444 0
 1395 09f4 0110A023 		cmp	r3, r1
 1396              		movlt	lr, r3
 1397 09f8 000057E1 		movge	lr, r1
 1398 09fc 04E08EE2 	.LVL219:
 1399 0a00 0D00000A 		.loc 1 445 0
 1400              		cmp	lr, #0
 1401              		.loc 1 440 0
 1402              		mov	r4, r1
 1403 0a04 06C09EE7 		mov	r5, r3
 1404              		mov	r1, r2
 1405 0a08 05209EE7 	.LVL220:
 1406 0a0c 01308CE0 		.loc 1 445 0
 1407              		ble	.L212
 1408 0a10 023083E0 	.LVL221:
 1409              		mov	ip, #0
 1410              	.LVL222:
 1411 0a14 000051E3 		mov	r2, ip
 1412              	.L214:
 1413 0a18 04308EE7 		.loc 1 446 0
 1414              		ldr	r3, [r2, r0]
 1415 0a1c F1FFFF1A 		.loc 1 445 0
 1416              		add	ip, ip, #1
 1417 0a20 010080E2 		cmp	lr, ip
 1418              		.loc 1 446 0
 1419 0a24 03005CE1 		str	r3, [r2, r1]
 1420 0a28 0010A093 		.loc 1 445 0
 1421 0a2c 0110A083 		add	r2, r2, #4
 1422              		bne	.L214
 1423 0a30 000057E1 	.LVL223:
 1424 0a34 04E08EE2 	.L212:
 1425 0a38 F1FFFF1A 		.loc 1 449 0
 1426              		cmp	r5, r4
 1427              		ble	.L222
 435:../custom_mdl/onboard_matlab_ert_rtw/onboard_matlab.c ****   }
 436:../custom_mdl/onboard_matlab_ert_rtw/onboard_matlab.c **** }
 1428              	2
 1429 0a3c F040BDE8 		ldr	r2, [r3, #-4]
 1430 0a40 1EFF2FE1 		cmp	r2, #0
 1431              		movge	r0, #0
 1432              		mvnlt	r0, #0
 1433              	.LVL224:
 1434              		.loc 1 451 0
 1435              		cmp	r5, lr
 1436              		ble	.L222
 1437              		.loc 1 440 0
 437:../custom_mdl/onboard_matlab_ert_rtw/onboard_matlab.c **** 
 438:../custom_mdl/onboard_matlab_ert_rtw/onboard_matlab.c **** void sMultiWord2MultiWord(const uint32_T u1[], int32_T n1, uint32_T y[], int32_T
 439:../custom_mdl/onboard_matlab_ert_rtw/onboard_matlab.c ****   n)
 440:../custom_mdl/onboard_matlab_ert_rtw/onboard_matlab.c **** {
 1438              	1, lr, asl #2
 1439              		rsb	r3, lr, r5
 1440              		mov	r1, #0
 1441              	.LVL225:
 1442              	.L221:
 1443 0a44 30402DE9 		.loc 1 452 0
 1444              		add	r1, r1, #1
 441:../custom_mdl/onboard_matlab_ert_rtw/onboard_matlab.c ****   uint32_T u1i;
 442:../custom_mdl/onboard_matlab_ert_rtw/onboard_matlab.c ****   int32_T nm;
 443:../custom_mdl/onboard_matlab_ert_rtw/onboard_matlab.c ****   int32_T i;
 444:../custom_mdl/onboard_matlab_ert_rtw/onboard_matlab.c ****   nm = n1 < n ? n1 : n;
 1445              	 451 0
 1446 0a48 010053E1 		cmp	r1, r3
 1447 0a4c 03E0A0B1 		.loc 1 452 0
 1448 0a50 01E0A0A1 		str	r0, [r2], #4
 1449              		.loc 1 451 0
 445:../custom_mdl/onboard_matlab_ert_rtw/onboard_matlab.c ****   for (i = 0; i < nm; i++) {
 1450              	.L221
 1451 0a54 00005EE3 	.LVL226:
 1452              	.L222:
 1453 0a58 0140A0E1 		.loc 1 455 0
 1454 0a5c 0350A0E1 		ldmfd	sp!, {r4, r5, lr}
 1455 0a60 0210A0E1 		bx	lr
 1456              	.LFE15:
 1458 0a64 070000DA 		.align	2
 1459              		.global	sMultiWordShl
 1461              	sMultiWordShl:
 1462 0a6c 0C20A0E1 	.LFB16:
 1463              		.loc 1 459 0
 446:../custom_mdl/onboard_matlab_ert_rtw/onboard_matlab.c ****     y[i] = u1[i];
 1464              	pports interworking.
 1465 0a70 003092E7 		@ args = 4, pretend = 0, frame = 0
 1466              		@ frame_needed = 0, uses_anonymous_args = 0
 1467 0a74 01C08CE2 	.LVL227:
 1468 0a78 0C005EE1 		stmfd	sp!, {r4, r5, r6, r7, r8, sl, lr}
 1469              	.LCFI20:
 1470 0a7c 013082E7 		.loc 1 459 0
 1471              		mov	r6, r1
 1472 0a80 042082E2 		.loc 1 469 0
 1473 0a84 F9FFFF1A 		add	r1, r0, r1, asl #2
 1474              	.LVL228:
 1475              		.loc 1 459 0
 447:../custom_mdl/onboard_matlab_ert_rtw/onboard_matlab.c ****   }
 448:../custom_mdl/onboard_matlab_ert_rtw/onboard_matlab.c **** 
 449:../custom_mdl/onboard_matlab_ert_rtw/onboard_matlab.c ****   if (n > n1) {
 1476              		.loc 1 469 0
 1477 0a88 040055E1 		ldr	r0, [r1, #-4]
 1478 0a8c 0D0000DA 	.LVL229:
 450:../custom_mdl/onboard_matlab_ert_rtw/onboard_matlab.c ****     u1i = (u1[n1 - 1] & 2147483648U) != 0U ? MAX_uint32_T : 0U;
 1479              	oc 1 459 0
 1480 0a90 043180E0 		ldr	sl, [sp, #28]
 1481 0a94 042013E5 		.loc 1 469 0
 1482 0a98 000052E3 		cmp	r0, #0
 1483 0a9c 0000A0A3 		.loc 1 459 0
 1484 0aa0 0000E0B3 		mov	ip, r2
 1485              		.loc 1 468 0
 451:../custom_mdl/onboard_matlab_ert_rtw/onboard_matlab.c ****     for (i = nm; i < n; i++) {
 1486              	, r2, lsr #5
 1487 0aa4 0E0055E1 	.LVL230:
 1488 0aa8 060000DA 		.loc 1 469 0
 1489              		movge	r7, #0
 1490 0aac 0E2181E0 		mvnlt	r7, #0
 1491 0ab0 05306EE0 	.LVL231:
 1492 0ab4 0010A0E3 		.loc 1 470 0
 1493              		cmp	r2, sl
 1494              		movlt	r1, r2
 452:../custom_mdl/onboard_matlab_ert_rtw/onboard_matlab.c ****       y[i] = u1i;
 1495              	, sl
 1496 0ab8 011081E2 	.LVL232:
 1497              		.loc 1 472 0
 1498 0abc 030051E1 		cmp	r1, #0
 1499              		.loc 1 459 0
 1500 0ac0 040082E4 		mov	lr, r3
 1501              		.loc 1 472 0
 1502 0ac4 FBFFFF1A 		movle	r5, #0
 1503              	.LVL233:
 1504              		ble	.L231
 453:../custom_mdl/onboard_matlab_ert_rtw/onboard_matlab.c ****     }
 454:../custom_mdl/onboard_matlab_ert_rtw/onboard_matlab.c ****   }
 455:../custom_mdl/onboard_matlab_ert_rtw/onboard_matlab.c **** }
 1505              	mov	r3, #0
 1506 0ac8 3040BDE8 	.LVL235:
 1507 0acc 1EFF2FE1 		mov	r0, r3
 1508              	.LVL236:
 1509              	.L232:
 1510              		.loc 1 473 0
 1511              		str	r0, [lr, r3, asl #2]
 1512              		.loc 1 472 0
 1513              		add	r3, r3, #1
 1514              		cmp	r1, r3
 456:../custom_mdl/onboard_matlab_ert_rtw/onboard_matlab.c **** 
 457:../custom_mdl/onboard_matlab_ert_rtw/onboard_matlab.c **** void sMultiWordShl(const uint32_T u1[], int32_T n1, uint32_T n2, uint32_T y[],
 458:../custom_mdl/onboard_matlab_ert_rtw/onboard_matlab.c ****                    int32_T n)
 459:../custom_mdl/onboard_matlab_ert_rtw/onboard_matlab.c **** {
 1515              	
 1516              	.LVL237:
 1517              		mov	r5, r1
 1518              	.LVL238:
 1519              	.L231:
 1520 0ad0 F0452DE9 		.loc 1 476 0
 1521              		cmp	r2, sl
 1522              		bge	.L234
 1523 0ad4 0160A0E1 		.loc 1 478 0
 460:../custom_mdl/onboard_matlab_ert_rtw/onboard_matlab.c ****   int32_T nb;
 461:../custom_mdl/onboard_matlab_ert_rtw/onboard_matlab.c ****   int32_T nc;
 462:../custom_mdl/onboard_matlab_ert_rtw/onboard_matlab.c ****   int32_T i;
 463:../custom_mdl/onboard_matlab_ert_rtw/onboard_matlab.c ****   uint32_T ys;
 464:../custom_mdl/onboard_matlab_ert_rtw/onboard_matlab.c ****   uint32_T u1i;
 465:../custom_mdl/onboard_matlab_ert_rtw/onboard_matlab.c ****   uint32_T yi;
 466:../custom_mdl/onboard_matlab_ert_rtw/onboard_matlab.c ****   uint32_T nr;
 467:../custom_mdl/onboard_matlab_ert_rtw/onboard_matlab.c ****   uint32_T nl;
 468:../custom_mdl/onboard_matlab_ert_rtw/onboard_matlab.c ****   nb = (int32_T)(n2 >> 5);
 469:../custom_mdl/onboard_matlab_ert_rtw/onboard_matlab.c ****   ys = (u1[n1 - 1] & 2147483648U) != 0U ? MAX_uint32_T : 0U;
 1524              	 r2, r6
 1525 0ad8 011180E0 	.LVL239:
 1526              		.loc 1 477 0
 1527              		sub	r2, ip, r2, asl #5
 1528 0adc 0040A0E1 	.LVL240:
 1529              		.loc 1 483 0
 1530 0ae0 040011E5 		cmp	sl, r3
 1531              		rsble	r1, r5, sl
 1532              		rsbgt	r1, r5, r3
 1533 0ae4 1CA09DE5 	.LVL241:
 1534              		.loc 1 484 0
 1535 0ae8 000050E3 		cmp	r2, #0
 1536              		beq	.L258
 1537 0aec 02C0A0E1 		.loc 1 486 0
 1538              		cmp	r1, #0
 1539 0af0 A222A0E1 		.loc 1 485 0
 1540              		rsb	r8, r2, #32
 1541              	.LVL242:
 1542 0af4 0070A0A3 		.loc 1 486 0
 1543 0af8 0070E0B3 		movle	r6, #0
 1544              	.LVL243:
 470:../custom_mdl/onboard_matlab_ert_rtw/onboard_matlab.c ****   nc = nb > n ? n : nb;
 1545              	0
 1546 0afc 0A0052E1 		add	ip, lr, r5, asl #2
 1547 0b00 0210A0B1 	.LVL244:
 1548 0b04 0A10A0A1 		mov	r0, r6
 1549              	.LVL245:
 471:../custom_mdl/onboard_matlab_ert_rtw/onboard_matlab.c ****   u1i = 0U;
 472:../custom_mdl/onboard_matlab_ert_rtw/onboard_matlab.c ****   for (i = 0; i < nc; i++) {
 1550              	:
 1551 0b08 000051E3 		.loc 1 487 0
 1552              		mov	r3, r6, lsr r8
 1553 0b0c 03E0A0E1 	.LVL246:
 1554              		.loc 1 488 0
 1555 0b10 0050A0D3 		ldr	r6, [r4, r0, asl #2]
 1556              		.loc 1 489 0
 1557 0b14 060000DA 		orr	r3, r3, r6, asl r2
 1558              	.LVL247:
 1559 0b18 0030A0E3 		.loc 1 486 0
 1560              		add	r0, r0, #1
 1561 0b1c 0300A0E1 		cmp	r1, r0
 1562              		.loc 1 489 0
 1563              		str	r3, [ip], #4
 473:../custom_mdl/onboard_matlab_ert_rtw/onboard_matlab.c ****     y[i] = 0U;
 1564              		bne	.L242
 1565 0b20 03018EE7 		add	r5, r5, r1
 1566              	.LVL248:
 1567 0b24 013083E2 	.L241:
 1568 0b28 030051E1 		.loc 1 493 0
 1569 0b2c FBFFFF1A 		cmp	sl, r5
 1570              		.loc 1 494 0
 1571 0b30 0150A0E1 		movgt	r3, r7, asl r2
 1572              	.LVL249:
 1573              		orrgt	r3, r3, r6, lsr r8
 474:../custom_mdl/onboard_matlab_ert_rtw/onboard_matlab.c ****   }
 475:../custom_mdl/onboard_matlab_ert_rtw/onboard_matlab.c **** 
 476:../custom_mdl/onboard_matlab_ert_rtw/onboard_matlab.c ****   if (nb < n) {
 1574              	 [lr, r5, asl #2]
 1575 0b34 0A0052E1 		.loc 1 495 0
 1576 0b38 1B0000AA 		addgt	r5, r5, #1
 477:../custom_mdl/onboard_matlab_ert_rtw/onboard_matlab.c ****     nl = n2 - ((uint32_T)nb << 5);
 478:../custom_mdl/onboard_matlab_ert_rtw/onboard_matlab.c ****     nb += n1;
 1577              	oc 1 493 0
 1578 0b3c 063082E0 		ble	.L250
 1579              	.LVL250:
 1580              	.L234:
 1581 0b40 82224CE0 		.loc 1 505 0
 1582              		cmp	sl, r5
 479:../custom_mdl/onboard_matlab_ert_rtw/onboard_matlab.c ****     if (nb > n) {
 480:../custom_mdl/onboard_matlab_ert_rtw/onboard_matlab.c ****       nb = n;
 481:../custom_mdl/onboard_matlab_ert_rtw/onboard_matlab.c ****     }
 482:../custom_mdl/onboard_matlab_ert_rtw/onboard_matlab.c **** 
 483:../custom_mdl/onboard_matlab_ert_rtw/onboard_matlab.c ****     nb -= i;
 1583              		r1, r5, sl
 1584 0b44 03005AE1 	.LVL251:
 1585 0b48 0A1065D0 		.loc 1 459 0
 1586 0b4c 031065C0 		addgt	r3, lr, r5, asl #2
 1587              	.LVL252:
 484:../custom_mdl/onboard_matlab_ert_rtw/onboard_matlab.c ****     if (nl > 0U) {
 1588              	t	r2, #0
 1589 0b50 000052E3 	.LVL253:
 1590 0b54 1F00000A 		.loc 1 505 0
 485:../custom_mdl/onboard_matlab_ert_rtw/onboard_matlab.c ****       nr = 32U - nl;
 486:../custom_mdl/onboard_matlab_ert_rtw/onboard_matlab.c ****       for (nc = 0; nc < nb; nc++) {
 1591              	e	.L250
 1592 0b58 000051E3 	.L249:
 1593              		.loc 1 506 0
 1594 0b5c 208062E2 		add	r2, r2, #1
 1595              		.loc 1 505 0
 1596              		cmp	r2, r1
 1597 0b60 0060A0D3 		.loc 1 506 0
 1598              		str	r7, [r3], #4
 1599 0b64 0A0000DA 		.loc 1 505 0
 1600 0b68 0060A0E3 		bne	.L249
 1601 0b6c 05C18EE0 	.LVL254:
 1602              	.L250:
 1603 0b70 0600A0E1 		.loc 1 509 0
 1604              		ldmfd	sp!, {r4, r5, r6, r7, r8, sl, lr}
 1605              		bx	lr
 487:../custom_mdl/onboard_matlab_ert_rtw/onboard_matlab.c ****         yi = u1i >> nr;
 1606              	
 1607 0b74 3638A0E1 		.loc 1 498 0
 1608              		cmp	r1, #0
 488:../custom_mdl/onboard_matlab_ert_rtw/onboard_matlab.c ****         u1i = u1[nc];
 1609              	loc 1 495 0
 1610 0b78 006194E7 		addgt	r0, lr, r5, asl #2
 489:../custom_mdl/onboard_matlab_ert_rtw/onboard_matlab.c ****         y[i] = u1i << nl | yi;
 1611              	VL256:
 1612 0b7c 163283E1 		.loc 1 498 0
 1613              		ble	.L234
 1614              	.L247:
 1615 0b80 010080E2 	.LVL257:
 1616 0b84 000051E1 		.loc 1 499 0
 1617              		ldr	r3, [r4, r2, asl #2]
 1618 0b88 04308CE4 	.LVL258:
 1619              		.loc 1 498 0
 1620 0b8c F8FFFF1A 		add	r2, r2, #1
 1621 0b90 015085E0 		cmp	r1, r2
 1622              		.loc 1 499 0
 1623              		str	r3, [r0], #4
 490:../custom_mdl/onboard_matlab_ert_rtw/onboard_matlab.c ****         i++;
 491:../custom_mdl/onboard_matlab_ert_rtw/onboard_matlab.c ****       }
 492:../custom_mdl/onboard_matlab_ert_rtw/onboard_matlab.c **** 
 493:../custom_mdl/onboard_matlab_ert_rtw/onboard_matlab.c ****       if (i < n) {
 1624              	
 1625 0b94 05005AE1 		bne	.L247
 494:../custom_mdl/onboard_matlab_ert_rtw/onboard_matlab.c ****         y[i] = u1i >> nr | ys << nl;
 1626              	add	r5, r5, r1
 1627 0b98 1732A0C1 		b	.L234
 1628              	.LFE16:
 1630 0ba0 05318EC7 		.align	2
 495:../custom_mdl/onboard_matlab_ert_rtw/onboard_matlab.c ****         i++;
 1631              	bal	sLong2MultiWord
 1633              	sLong2MultiWord:
 1634 0ba8 080000DA 	.LFB17:
 1635              		.loc 1 512 0
 1636              		@ Function supports interworking.
 496:../custom_mdl/onboard_matlab_ert_rtw/onboard_matlab.c ****       }
 497:../custom_mdl/onboard_matlab_ert_rtw/onboard_matlab.c ****     } else {
 498:../custom_mdl/onboard_matlab_ert_rtw/onboard_matlab.c ****       for (nc = 0; nc < nb; nc++) {
 499:../custom_mdl/onboard_matlab_ert_rtw/onboard_matlab.c ****         y[i] = u1[nc];
 500:../custom_mdl/onboard_matlab_ert_rtw/onboard_matlab.c ****         i++;
 501:../custom_mdl/onboard_matlab_ert_rtw/onboard_matlab.c ****       }
 502:../custom_mdl/onboard_matlab_ert_rtw/onboard_matlab.c ****     }
 503:../custom_mdl/onboard_matlab_ert_rtw/onboard_matlab.c ****   }
 504:../custom_mdl/onboard_matlab_ert_rtw/onboard_matlab.c **** 
 505:../custom_mdl/onboard_matlab_ert_rtw/onboard_matlab.c ****   while (i < n) {
 1637              	s = 0, pretend = 0, frame = 0
 1638 0bac 05005AE1 		@ frame_needed = 0, uses_anonymous_args = 0
 1639 0bb0 0A1065C0 		@ link register save eliminated.
 1640              	.LVL259:
 1641              		.loc 1 516 0
 1642 0bb4 05318EC0 		cmp	r0, #0
 1643              		movge	ip, #0
 1644 0bb8 0020A0C3 		mvnlt	ip, #0
 1645              	.LVL260:
 1646              		.loc 1 517 0
 1647 0bbc 030000DA 		cmp	r2, #1
 1648              		.loc 1 512 0
 506:../custom_mdl/onboard_matlab_ert_rtw/onboard_matlab.c ****     y[i] = ys;
 1649              	 for prologue
 1650 0bc0 012082E2 		.loc 1 515 0
 1651              		str	r0, [r1, #0]
 1652 0bc4 010052E1 		.loc 1 517 0
 1653              		bxle	lr
 1654 0bc8 047083E4 		mov	r3, #1
 1655              	.LVL261:
 1656 0bcc FBFFFF1A 	.L265:
 1657              		.loc 1 518 0
 1658              		str	ip, [r1, r3, asl #2]
 507:../custom_mdl/onboard_matlab_ert_rtw/onboard_matlab.c ****     i++;
 508:../custom_mdl/onboard_matlab_ert_rtw/onboard_matlab.c ****   }
 509:../custom_mdl/onboard_matlab_ert_rtw/onboard_matlab.c **** }
 1659              	7 0
 1660 0bd0 F045BDE8 		add	r3, r3, #1
 1661 0bd4 1EFF2FE1 		cmp	r2, r3
 1662              		bne	.L265
 1663              		bx	lr
 1664              	.LFE17:
 1666              		.align	2
 1667 0bdc 05018EC0 		.global	sMultiWordCmp
 1669              	sMultiWordCmp:
 1670 0be0 F1FFFFDA 	.LFB19:
 1671              		.loc 1 528 0
 1672              		@ Function supports interworking.
 1673              		@ args = 0, pretend = 0, frame = 0
 1674 0be4 023194E7 		@ frame_needed = 0, uses_anonymous_args = 0
 1675              	.LVL262:
 1676              		.loc 1 533 0
 1677 0be8 012082E2 		mov	r3, r2, asl #2
 1678 0bec 020051E1 		.loc 1 535 0
 1679              		add	ip, r3, r1
 1680 0bf0 043080E4 		.loc 1 533 0
 1681              		add	r1, r3, r0
 1682 0bf4 FAFFFF1A 	.LVL263:
 1683 0bf8 015085E0 		.loc 1 528 0
 1684 0bfc EAFFFFEA 		stmfd	sp!, {r4, lr}
 1685              	.LCFI21:
 1686              		.loc 1 535 0
 1687              		ldr	r3, [ip, #-4]
 1688              		.loc 1 528 0
 1689              		mov	r4, r2
 1690              		.loc 1 533 0
 1691              		ldr	r2, [r1, #-4]
 510:../custom_mdl/onboard_matlab_ert_rtw/onboard_matlab.c **** 
 511:../custom_mdl/onboard_matlab_ert_rtw/onboard_matlab.c **** void sLong2MultiWord(int32_T u, uint32_T y[], int32_T n)
 512:../custom_mdl/onboard_matlab_ert_rtw/onboard_matlab.c **** {
 1692              	3, #-2147483648
 1693              		.loc 1 533 0
 1694              		and	r2, r2, #-2147483648
 1695              	.LVL265:
 1696              		.loc 1 535 0
 1697              		eors	r0, r2, r3
 513:../custom_mdl/onboard_matlab_ert_rtw/onboard_matlab.c ****   uint32_T yi;
 514:../custom_mdl/onboard_matlab_ert_rtw/onboard_matlab.c ****   int32_T i;
 515:../custom_mdl/onboard_matlab_ert_rtw/onboard_matlab.c ****   y[0] = (uint32_T)u;
 516:../custom_mdl/onboard_matlab_ert_rtw/onboard_matlab.c ****   yi = u < 0 ? MAX_uint32_T : 0U;
 1698              	6:
 1699 0c00 000050E3 		.loc 1 528 0
 1700 0c04 00C0A0A3 		moveq	lr, r1
 1701 0c08 00C0E0B3 		moveq	r1, r4
 1702              	.LVL267:
 517:../custom_mdl/onboard_matlab_ert_rtw/onboard_matlab.c ****   for (i = 1; i < n; i++) {
 1703              	 1 535 0
 1704 0c0c 010052E3 		beq	.L271
 1705              		.loc 1 536 0
 1706              		cmp	r2, #0
 1707              		moveq	r0, #1
 1708 0c10 000081E5 		mvnne	r0, #0
 1709              	.LVL268:
 1710 0c14 1EFF2FD1 	.L274:
 1711 0c18 0130A0E3 	.LVL269:
 1712              		.loc 1 551 0
 1713              		ldmfd	sp!, {r4, lr}
 518:../custom_mdl/onboard_matlab_ert_rtw/onboard_matlab.c ****     y[i] = yi;
 1714              	270:
 1715 0c1c 03C181E7 	.L275:
 1716              		.loc 1 542 0
 1717 0c20 013083E2 		ldr	r2, [lr, #-4]
 1718 0c24 030052E1 	.LVL271:
 1719 0c28 FBFFFF1A 		.loc 1 543 0
 1720 0c2c 1EFF2FE1 		ldr	r3, [ip, #-4]
 1721              	.LVL272:
 1722              		.loc 1 544 0
 1723              		cmp	r2, r3
 1724              		.loc 1 541 0
 1725              		sub	r1, r1, #1
 1726              		.loc 1 544 0
 1727              		beq	.L276
 519:../custom_mdl/onboard_matlab_ert_rtw/onboard_matlab.c ****   }
 520:../custom_mdl/onboard_matlab_ert_rtw/onboard_matlab.c **** }
 521:../custom_mdl/onboard_matlab_ert_rtw/onboard_matlab.c **** 
 522:../custom_mdl/onboard_matlab_ert_rtw/onboard_matlab.c **** boolean_T sMultiWordGe(const uint32_T u1[], const uint32_T u2[], int32_T n)
 523:../custom_mdl/onboard_matlab_ert_rtw/onboard_matlab.c **** {
 524:../custom_mdl/onboard_matlab_ert_rtw/onboard_matlab.c ****   return sMultiWordCmp(u1, u2, n) >= 0 ? (int32_T)TRUE : (int32_T)FALSE;
 525:../custom_mdl/onboard_matlab_ert_rtw/onboard_matlab.c **** }
 526:../custom_mdl/onboard_matlab_ert_rtw/onboard_matlab.c **** 
 527:../custom_mdl/onboard_matlab_ert_rtw/onboard_matlab.c **** int32_T sMultiWordCmp(const uint32_T u1[], const uint32_T u2[], int32_T n)
 528:../custom_mdl/onboard_matlab_ert_rtw/onboard_matlab.c **** {
 1728              		mov	r0, #1
 1729              		mvnls	r0, #0
 1730              	.L276:
 1731              		sub	lr, lr, #4
 1732              		sub	ip, ip, #4
 529:../custom_mdl/onboard_matlab_ert_rtw/onboard_matlab.c ****   uint32_T su;
 530:../custom_mdl/onboard_matlab_ert_rtw/onboard_matlab.c ****   uint32_T su_0;
 531:../custom_mdl/onboard_matlab_ert_rtw/onboard_matlab.c ****   int32_T i;
 532:../custom_mdl/onboard_matlab_ert_rtw/onboard_matlab.c ****   int32_T cmp;
 533:../custom_mdl/onboard_matlab_ert_rtw/onboard_matlab.c ****   su = u1[n - 1] & 2147483648U;
 1733              	73:
 1734 0c30 0231A0E1 	.L271:
 534:../custom_mdl/onboard_matlab_ert_rtw/onboard_matlab.c ****   su_0 = u2[n - 1] & 2147483648U;
 535:../custom_mdl/onboard_matlab_ert_rtw/onboard_matlab.c ****   if ((su ^ su_0) != 0U) {
 1735              	loc 1 540 0
 1736 0c34 01C083E0 		rsbs	r3, r0, #1
 1737              		movcc	r3, #0
 1738 0c38 001083E0 	.LVL274:
 1739              		cmp	r1, #0
 1740              		movle	r3, #0
 1741 0c3c 10402DE9 		cmp	r3, #0
 1742              		bne	.L275
 1743              		b	.L274
 1744 0c40 04301CE5 	.LFE19:
 1746 0c44 0240A0E1 		.align	2
 1747              		.global	sMultiWordGe
 1749              	sMultiWordGe:
 1750              	.LFB18:
 1751 0c4c 023103E2 		.loc 1 523 0
 1752              		@ Function supports interworking.
 1753 0c50 022102E2 		@ args = 0, pretend = 0, frame = 0
 1754              		@ frame_needed = 0, uses_anonymous_args = 0
 1755              	.LVL275:
 1756 0c54 030032E0 		str	lr, [sp, #-4]!
 1757              	.LCFI22:
 1758              		.loc 1 524 0
 1759 0c58 01E0A001 		bl	sMultiWordCmp
 1760 0c5c 0410A001 	.LVL276:
 1761              		mvn	r0, r0
 1762              		.loc 1 525 0
 1763 0c60 0D00000A 		mov	r0, r0, lsr #31
 536:../custom_mdl/onboard_matlab_ert_rtw/onboard_matlab.c ****     cmp = su != 0U ? -1 : 1;
 1764              	18:
 1766 0c68 0100A003 		.align	2
 1767 0c6c 0000E013 		.global	sMultiWordLe
 1769              	sMultiWordLe:
 1770              	.LFB20:
 537:../custom_mdl/onboard_matlab_ert_rtw/onboard_matlab.c ****   } else {
 538:../custom_mdl/onboard_matlab_ert_rtw/onboard_matlab.c ****     cmp = 0;
 539:../custom_mdl/onboard_matlab_ert_rtw/onboard_matlab.c ****     i = n;
 540:../custom_mdl/onboard_matlab_ert_rtw/onboard_matlab.c ****     while ((cmp == 0) && (i > 0)) {
 541:../custom_mdl/onboard_matlab_ert_rtw/onboard_matlab.c ****       i--;
 542:../custom_mdl/onboard_matlab_ert_rtw/onboard_matlab.c ****       su = u1[i];
 543:../custom_mdl/onboard_matlab_ert_rtw/onboard_matlab.c ****       su_0 = u2[i];
 544:../custom_mdl/onboard_matlab_ert_rtw/onboard_matlab.c ****       if (su != su_0) {
 545:../custom_mdl/onboard_matlab_ert_rtw/onboard_matlab.c ****         cmp = su > su_0 ? 1 : -1;
 546:../custom_mdl/onboard_matlab_ert_rtw/onboard_matlab.c ****       }
 547:../custom_mdl/onboard_matlab_ert_rtw/onboard_matlab.c ****     }
 548:../custom_mdl/onboard_matlab_ert_rtw/onboard_matlab.c ****   }
 549:../custom_mdl/onboard_matlab_ert_rtw/onboard_matlab.c **** 
 550:../custom_mdl/onboard_matlab_ert_rtw/onboard_matlab.c ****   return cmp;
 551:../custom_mdl/onboard_matlab_ert_rtw/onboard_matlab.c **** }
 1771              	 554 0
 1772 0c70 1040BDE8 		@ Function supports interworking.
 1773 0c74 1EFF2FE1 		@ args = 0, pretend = 0, frame = 0
 1774              		@ frame_needed = 0, uses_anonymous_args = 0
 1775              	.LVL277:
 1776              		str	lr, [sp, #-4]!
 1777 0c78 04201EE5 	.LCFI23:
 1778              		.loc 1 555 0
 1779              		bl	sMultiWordCmp
 1780 0c7c 04301CE5 	.LVL278:
 1781              		.loc 1 556 0
 1782              		cmp	r0, #0
 1783 0c80 030052E1 		movgt	r0, #0
 1784              		movle	r0, #1
 1785 0c84 011041E2 		ldr	lr, [sp], #4
 1786              		bx	lr
 1787 0c88 0100000A 	.LFE20:
 1789 0c8c 0100A0E3 		.align	2
 1790 0c90 0000E093 		.global	sMultiWordShrZero
 1792 0c94 04E04EE2 	sMultiWordShrZero:
 1793 0c98 04C04CE2 	.LFB21:
 1794              		.loc 1 560 0
 1795              		@ Function supports interworking.
 1796              		@ args = 4, pretend = 0, frame = 0
 1797 0c9c 013070E2 		@ frame_needed = 0, uses_anonymous_args = 0
 1798 0ca0 0030A033 	.LVL279:
 1799              		stmfd	sp!, {r4, r5, r6, r7, r8, lr}
 1800 0ca4 000051E3 	.LCFI24:
 1801 0ca8 0030A0D3 		.loc 1 565 0
 1802 0cac 000053E3 		add	ip, r0, r1, asl #2
 1803 0cb0 F0FFFF1A 		ldr	lr, [ip, #-4]
 1804 0cb4 EDFFFFEA 		.loc 1 560 0
 1805              		sub	sp, sp, #4
 1806              	.LCFI25:
 1807              		.loc 1 565 0
 1808              		cmp	lr, #0
 1809              		.loc 1 560 0
 1810              		mov	r4, r0
 1811              		mov	r6, r1
 1812              		mov	ip, r2
 1813              		mov	r8, r3
 1814              		ldr	r7, [sp, #28]
 1815              		.loc 1 565 0
 1816              		blt	.L301
 1817 0cb8 04E02DE5 	.LVL280:
 1818              		.loc 1 582 0
 1819              		str	r7, [sp, #28]
 1820 0cbc FEFFFFEB 		.loc 1 592 0
 1821              		add	sp, sp, #4
 1822 0cc0 0000E0E1 		ldmfd	sp!, {r4, r5, r6, r7, r8, lr}
 1823              		.loc 1 582 0
 1824 0cc4 A00FA0E1 		b	sMultiWordShr
 1825 0cc8 04E09DE4 	.LVL281:
 1826 0ccc 1EFF2FE1 	.LVL282:
 1827              	.L301:
 1828              		.loc 1 567 0
 1829              		sub	r3, r2, #1
 1830              	.LVL283:
 1831              		.loc 1 568 0
 1832              		mov	r0, r3, lsr #5
 1833              	.LVL284:
 552:../custom_mdl/onboard_matlab_ert_rtw/onboard_matlab.c **** 
 553:../custom_mdl/onboard_matlab_ert_rtw/onboard_matlab.c **** boolean_T sMultiWordLe(const uint32_T u1[], const uint32_T u2[], int32_T n)
 554:../custom_mdl/onboard_matlab_ert_rtw/onboard_matlab.c **** {
 1834              		movle	r3, #1
 1835              	.LVL286:
 1836              		bgt	.L302
 1837              	.LVL287:
 1838              		.loc 1 576 0
 1839 0cd0 04E02DE5 		cmp	r0, #0
 1840              		movle	r3, #0
 555:../custom_mdl/onboard_matlab_ert_rtw/onboard_matlab.c ****   return sMultiWordCmp(u1, u2, n) <= 0 ? (int32_T)TRUE : (int32_T)FALSE;
 1841              	r3, r3, #1
 1842 0cd4 FEFFFFEB 		cmp	r3, #0
 1843              		beq	.L291
 556:../custom_mdl/onboard_matlab_ert_rtw/onboard_matlab.c **** }
 1844              	L288:
 1845 0cd8 000050E3 	.L303:
 1846 0cdc 0000A0C3 		mov	r2, #0
 1847 0ce0 0100A0D3 	.LVL289:
 1848 0ce4 04E09DE4 	.L293:
 1849 0ce8 1EFF2FE1 		.loc 1 577 0
 1850              		ldr	r3, [r4, r2, asl #2]
 1851              		subs	r5, r3, #0
 1852              		movne	r5, #1
 1853              		.loc 1 578 0
 1854              		add	r2, r2, #1
 1855              		.loc 1 576 0
 1856              		eor	r3, r5, #1
 557:../custom_mdl/onboard_matlab_ert_rtw/onboard_matlab.c **** 
 558:../custom_mdl/onboard_matlab_ert_rtw/onboard_matlab.c **** void sMultiWordShrZero(const uint32_T u1[], int32_T n1, uint32_T n2, uint32_T y[],
 559:../custom_mdl/onboard_matlab_ert_rtw/onboard_matlab.c ****   int32_T n)
 560:../custom_mdl/onboard_matlab_ert_rtw/onboard_matlab.c **** {
 1857              	movle	r3, #0
 1858              		andgt	r3, r3, #1
 1859              		cmp	r3, #0
 1860              		bne	.L293
 1861              	.LVL290:
 1862 0cec F0412DE9 	.L291:
 1863              		.loc 1 582 0
 561:../custom_mdl/onboard_matlab_ert_rtw/onboard_matlab.c ****   uint32_T ys;
 562:../custom_mdl/onboard_matlab_ert_rtw/onboard_matlab.c ****   boolean_T doRounding = FALSE;
 563:../custom_mdl/onboard_matlab_ert_rtw/onboard_matlab.c ****   int32_T nb;
 564:../custom_mdl/onboard_matlab_ert_rtw/onboard_matlab.c ****   int32_T i;
 565:../custom_mdl/onboard_matlab_ert_rtw/onboard_matlab.c ****   ys = (u1[n1 - 1] & 2147483648U) != 0U ? MAX_uint32_T : 0U;
 1864              	, r4
 1865 0cf0 01C180E0 	.LVL291:
 1866 0cf4 04E01CE5 		mov	r3, r8
 1867              		mov	r1, r6
 1868 0cf8 04D04DE2 		mov	r2, ip
 1869              	.LVL292:
 1870              		str	r7, [sp, #0]
 1871 0cfc 00005EE3 		bl	sMultiWordShr
 1872              	.LVL293:
 1873 0d00 0040A0E1 	.LVL294:
 1874 0d04 0160A0E1 		.loc 1 584 0
 1875 0d08 02C0A0E1 		cmp	r7, #0
 1876 0d0c 0380A0E1 		movle	r3, #0
 1877 0d10 1C709DE5 		andgt	r3, r5, #1
 1878              		cmp	r3, #0
 1879 0d14 030000BA 	.LVL295:
 1880              		mov	r0, r5
 566:../custom_mdl/onboard_matlab_ert_rtw/onboard_matlab.c ****   if (ys != 0U) {
 567:../custom_mdl/onboard_matlab_ert_rtw/onboard_matlab.c ****     ys = n2 - 1U;
 568:../custom_mdl/onboard_matlab_ert_rtw/onboard_matlab.c ****     nb = (int32_T)(ys >> 5);
 569:../custom_mdl/onboard_matlab_ert_rtw/onboard_matlab.c ****     if (nb < n1) {
 570:../custom_mdl/onboard_matlab_ert_rtw/onboard_matlab.c ****       doRounding = ((((2U << (ys - (nb << 5))) - 1U) & u1[nb]) != 0U);
 571:../custom_mdl/onboard_matlab_ert_rtw/onboard_matlab.c ****     } else {
 572:../custom_mdl/onboard_matlab_ert_rtw/onboard_matlab.c ****       nb = n1;
 573:../custom_mdl/onboard_matlab_ert_rtw/onboard_matlab.c ****     }
 574:../custom_mdl/onboard_matlab_ert_rtw/onboard_matlab.c **** 
 575:../custom_mdl/onboard_matlab_ert_rtw/onboard_matlab.c ****     i = 0;
 576:../custom_mdl/onboard_matlab_ert_rtw/onboard_matlab.c ****     while ((!doRounding) && (i < nb)) {
 577:../custom_mdl/onboard_matlab_ert_rtw/onboard_matlab.c ****       doRounding = (u1[i] != 0U);
 578:../custom_mdl/onboard_matlab_ert_rtw/onboard_matlab.c ****       i++;
 579:../custom_mdl/onboard_matlab_ert_rtw/onboard_matlab.c ****     }
 580:../custom_mdl/onboard_matlab_ert_rtw/onboard_matlab.c ****   }
 581:../custom_mdl/onboard_matlab_ert_rtw/onboard_matlab.c **** 
 582:../custom_mdl/onboard_matlab_ert_rtw/onboard_matlab.c ****   sMultiWordShr(u1, n1, n2, y, n);
 1881              	1, #0
 1882 0d18 1C708DE5 	.LVL296:
 583:../custom_mdl/onboard_matlab_ert_rtw/onboard_matlab.c ****   nb = 0;
 584:../custom_mdl/onboard_matlab_ert_rtw/onboard_matlab.c ****   while (doRounding && (nb < n)) {
 585:../custom_mdl/onboard_matlab_ert_rtw/onboard_matlab.c ****     y[nb]++;
 586:../custom_mdl/onboard_matlab_ert_rtw/onboard_matlab.c ****     if (y[nb] != 0U) {
 587:../custom_mdl/onboard_matlab_ert_rtw/onboard_matlab.c ****       doRounding = FALSE;
 588:../custom_mdl/onboard_matlab_ert_rtw/onboard_matlab.c ****     }
 589:../custom_mdl/onboard_matlab_ert_rtw/onboard_matlab.c **** 
 590:../custom_mdl/onboard_matlab_ert_rtw/onboard_matlab.c ****     nb++;
 591:../custom_mdl/onboard_matlab_ert_rtw/onboard_matlab.c ****   }
 592:../custom_mdl/onboard_matlab_ert_rtw/onboard_matlab.c **** }
 1883              	ov	r2, r1
 1884 0d1c 04D08DE2 	.L296:
 1885 0d20 F041BDE8 		.loc 1 585 0
 1886              		ldr	r3, [r2, r8]
 1887 0d24 FEFFFFEA 		add	r3, r3, #1
 1888              		.loc 1 586 0
 1889              		cmp	r3, #0
 1890              		.loc 1 590 0
 1891              		add	r1, r1, #1
 1892 0d28 013042E2 		.loc 1 585 0
 1893              		str	r3, [r2, r8]
 1894              		.loc 1 586 0
 1895 0d2c A302A0E1 		bne	.L298
 1896              		.loc 1 584 0
 1897              		cmp	r7, r1
 1898 0d30 000051E1 		movle	r3, #0
 1899 0d34 0100A0D1 		andgt	r3, r0, #1
 1900 0d38 0050A0D3 		cmp	r3, #0
 1901              		.loc 1 590 0
 1902 0d3c 0130A0D3 		add	r2, r2, #4
 1903              		.loc 1 584 0
 1904 0d40 2C0000CA 		bne	.L296
 1905              	.L298:
 1906              		.loc 1 592 0
 1907 0d44 000050E3 		add	sp, sp, #4
 1908 0d48 0030A0D3 		ldmfd	sp!, {r4, r5, r6, r7, r8, lr}
 1909 0d4c 013003C2 		bx	lr
 1910 0d50 000053E3 	.LVL297:
 1911 0d54 0A00000A 	.L302:
 1912              	.LVL298:
 1913              		.loc 1 570 0
 1914 0d58 0020A0E3 		sub	r3, r3, r0, asl #5
 1915              	.LVL299:
 1916              		mov	r2, #2
 1917              	.LVL300:
 1918 0d5c 023194E7 		mov	r2, r2, asl r3
 1919 0d60 005053E2 		ldr	r1, [r4, r0, asl #2]
 1920 0d64 0150A013 	.LVL301:
 1921              		sub	r2, r2, #1
 1922 0d68 012082E2 		tst	r2, r1
 1923              		moveq	r5, #0
 1924 0d6c 013025E2 		movne	r5, #1
 1925 0d70 020050E1 		eor	r3, r5, #1
 1926 0d74 0030A0D3 		.loc 1 576 0
 1927 0d78 013003C2 		cmp	r0, #0
 1928 0d7c 000053E3 		movle	r3, #0
 1929 0d80 F5FFFF1A 		andgt	r3, r3, #1
 1930              		cmp	r3, #0
 1931              		bne	.L303
 1932              		b	.L291
 1933 0d84 0400A0E1 	.LFE21:
 1935 0d88 0830A0E1 		.align	2
 1936 0d8c 0610A0E1 		.global	onboard_matlab_step0
 1938              	onboard_matlab_step0:
 1939 0d94 00708DE5 	.LFB22:
 1940 0d98 FEFFFFEB 		.loc 1 596 0
 1941              		@ Function supports interworking.
 1942              		@ args = 0, pretend = 0, frame = 224
 1943              		@ frame_needed = 0, uses_anonymous_args = 0
 1944 0d9c 000057E3 		stmfd	sp!, {r4, r5, r6, r7, r8, r9, sl, fp, lr}
 1945 0da0 0030A0D3 	.LCFI26:
 1946 0da4 013005C2 		.loc 1 649 0
 1947 0da8 000053E3 		ldr	sl, .L414
 1948              		ldrsh	r3, [sl, #120]
 1949 0dac 0500A0E1 		tst	r3, #536870912
 1950 0db0 0D00000A 		movne	r2, #-2147483648
 1951 0db4 0010A0E3 		.loc 1 674 0
 1952              		ldr	r3, .L414+4
 1953 0db8 0120A0E1 		.loc 1 649 0
 1954              		moveq	r1, #0
 1955              		movne	r2, r2, asr #15
 1956 0dbc 083092E7 		.loc 1 596 0
 1957 0dc0 013083E2 		sub	sp, sp, #232
 1958              	.LCFI27:
 1959 0dc4 000053E3 		.loc 1 649 0
 1960              		moveq	ip, r1
 1961 0dc8 011081E2 		streq	r1, [sp, #36]
 1962              		strne	r2, [sp, #36]
 1963 0dcc 083082E7 		.loc 1 674 0
 1964              		ldr	r1, .L414+8
 1965 0dd0 0500001A 		ldr	r2, [r3, #0]
 1966              		ldr	r0, .L414+12
 1967 0dd4 010057E1 		.loc 1 649 0
 1968 0dd8 0030A0D3 		mvnne	ip, #0
 1969 0ddc 013000C2 		moveq	lr, #65536
 1970 0de0 000053E3 		movne	lr, #0
 1971              		.loc 1 674 0
 1972 0de4 042082E2 		cmp	r2, r1
 1973              		movgt	r3, #0
 1974 0de8 F3FFFF1A 		movle	r3, #1
 1975              		cmp	r2, r0
 1976              		addgt	r3, r3, #1
 1977 0dec 04D08DE2 		add	r3, r3, ip
 1978 0df0 F041BDE8 	.LVL302:
 1979 0df4 1EFF2FE1 		.loc 1 677 0
 1980              		cmp	r3, #127
 1981              		movgt	r7, #127
 1982              		strgt	r7, [sp, #8]
 1983              	.LVL303:
 1984 0df8 803243E0 		bgt	.L310
 1985              		.loc 1 686 0
 1986 0dfc 0220A0E3 		ands	r3, r3, #255
 1987              	.LVL304:
 1988 0e00 1223A0E1 		str	r3, [sp, #8]
 1989 0e04 001194E7 		beq	.L407
 1990              	.LVL305:
 1991 0e08 012042E2 	.L310:
 1992 0e0c 010012E1 		.loc 1 688 0
 1993 0e10 0050A003 		ldr	r1, .L414+4
 1994 0e14 0150A013 		mov	r3, #0
 1995 0e18 013025E2 	.LVL306:
 1996              		str	r3, [r1, #0]
 1997 0e1c 000050E3 	.L313:
 1998 0e20 0030A0D3 		.loc 1 700 0
 1999 0e24 013003C2 		ldr	r7, [sp, #36]
 2000 0e28 000053E3 		cmp	r7, #0
 2001 0e2c C9FFFF1A 		bne	.L317
 2002 0e30 D3FFFFEA 		ldr	ip, .L414+4
 2003              		ldrsb	r3, [ip, #11]
 2004              		cmp	r3, #0
 2005              		bne	.L317
 2006              	.L319:
 2007              		.loc 1 709 0
 2008              		ldrh	r3, [sl, #152]
 2009              		mov	r3, r3, asl #16
 593:../custom_mdl/onboard_matlab_ert_rtw/onboard_matlab.c **** 
 594:../custom_mdl/onboard_matlab_ert_rtw/onboard_matlab.c **** /* Model step function for TID0 */
 595:../custom_mdl/onboard_matlab_ert_rtw/onboard_matlab.c **** void onboard_matlab_step0(void)        /* Sample time: [0.001s, 0.0s] */
 596:../custom_mdl/onboard_matlab_ert_rtw/onboard_matlab.c **** {
 2010              	dgt	ip, r3, #255
 2011              	.L322:
 2012              		.loc 1 723 0
 2013              		mov	r1, #1
 2014 0e34 F04F2DE9 		mov	r4, #2
 2015              		mov	r3, r1
 597:../custom_mdl/onboard_matlab_ert_rtw/onboard_matlab.c ****   /* local block i/o variables */
 598:../custom_mdl/onboard_matlab_ert_rtw/onboard_matlab.c ****   int32_T rtb_Sum3_h;
 599:../custom_mdl/onboard_matlab_ert_rtw/onboard_matlab.c ****   int8_T rtb_Sum2;
 600:../custom_mdl/onboard_matlab_ert_rtw/onboard_matlab.c ****   boolean_T negate;
 601:../custom_mdl/onboard_matlab_ert_rtw/onboard_matlab.c ****   int32_T yn;
 602:../custom_mdl/onboard_matlab_ert_rtw/onboard_matlab.c ****   int32_T xtmp;
 603:../custom_mdl/onboard_matlab_ert_rtw/onboard_matlab.c ****   int32_T ytmp;
 604:../custom_mdl/onboard_matlab_ert_rtw/onboard_matlab.c ****   int32_T rtb_angle_roll;
 605:../custom_mdl/onboard_matlab_ert_rtw/onboard_matlab.c ****   int16_T rtb_DataTypeConversion;
 606:../custom_mdl/onboard_matlab_ert_rtw/onboard_matlab.c ****   int16_T rtb_Gain10;
 607:../custom_mdl/onboard_matlab_ert_rtw/onboard_matlab.c ****   int16_T rtb_Gain14;
 608:../custom_mdl/onboard_matlab_ert_rtw/onboard_matlab.c ****   int16_T rtb_Gain15;
 609:../custom_mdl/onboard_matlab_ert_rtw/onboard_matlab.c ****   int16_T rtb_Gain16;
 610:../custom_mdl/onboard_matlab_ert_rtw/onboard_matlab.c ****   int16_T rtb_Gain17;
 611:../custom_mdl/onboard_matlab_ert_rtw/onboard_matlab.c ****   int64m_T rtb_Sum3;
 612:../custom_mdl/onboard_matlab_ert_rtw/onboard_matlab.c ****   static const int32_T cordicLUT_n11_s32En[11] = { 843314857, 497837829,
 613:../custom_mdl/onboard_matlab_ert_rtw/onboard_matlab.c ****     263043837, 133525159, 67021687, 33543516, 16775851, 8388437, 4194283,
 614:../custom_mdl/onboard_matlab_ert_rtw/onboard_matlab.c ****     2097149, 1048576 };
 615:../custom_mdl/onboard_matlab_ert_rtw/onboard_matlab.c **** 
 616:../custom_mdl/onboard_matlab_ert_rtw/onboard_matlab.c ****   uint8_T tmp;
 617:../custom_mdl/onboard_matlab_ert_rtw/onboard_matlab.c ****   int32_T rtb_IndexVector_idx;
 618:../custom_mdl/onboard_matlab_ert_rtw/onboard_matlab.c ****   int16_T rtb_MultiportSwitch_idx;
 619:../custom_mdl/onboard_matlab_ert_rtw/onboard_matlab.c ****   int16_T rtb_MultiportSwitch_idx_0;
 620:../custom_mdl/onboard_matlab_ert_rtw/onboard_matlab.c ****   int16_T rtb_MultiportSwitch_idx_1;
 621:../custom_mdl/onboard_matlab_ert_rtw/onboard_matlab.c ****   int16_T rtb_MultiportSwitch_idx_2;
 622:../custom_mdl/onboard_matlab_ert_rtw/onboard_matlab.c ****   int16_T rtb_Saturation4_idx;
 623:../custom_mdl/onboard_matlab_ert_rtw/onboard_matlab.c ****   int16_T rtb_Saturation4_idx_0;
 624:../custom_mdl/onboard_matlab_ert_rtw/onboard_matlab.c ****   int16_T rtb_Saturation4_idx_1;
 625:../custom_mdl/onboard_matlab_ert_rtw/onboard_matlab.c ****   int8_T tmp_0;
 626:../custom_mdl/onboard_matlab_ert_rtw/onboard_matlab.c ****   int64m_T tmp_1;
 627:../custom_mdl/onboard_matlab_ert_rtw/onboard_matlab.c ****   int64m_T tmp_2;
 628:../custom_mdl/onboard_matlab_ert_rtw/onboard_matlab.c ****   uint32_T tmp_3;
 629:../custom_mdl/onboard_matlab_ert_rtw/onboard_matlab.c ****   uint32_T tmp_4;
 630:../custom_mdl/onboard_matlab_ert_rtw/onboard_matlab.c ****   int224m_T tmp_5;
 631:../custom_mdl/onboard_matlab_ert_rtw/onboard_matlab.c ****   int224m_T tmp_6;
 632:../custom_mdl/onboard_matlab_ert_rtw/onboard_matlab.c ****   int128m_T tmp_7;
 633:../custom_mdl/onboard_matlab_ert_rtw/onboard_matlab.c ****   int128m_T tmp_8;
 634:../custom_mdl/onboard_matlab_ert_rtw/onboard_matlab.c ****   int96m_T tmp_9;
 635:../custom_mdl/onboard_matlab_ert_rtw/onboard_matlab.c ****   int96m_T tmp_a;
 636:../custom_mdl/onboard_matlab_ert_rtw/onboard_matlab.c ****   int64m_T tmp_b;
 637:../custom_mdl/onboard_matlab_ert_rtw/onboard_matlab.c ****   int96m_T tmp_c;
 638:../custom_mdl/onboard_matlab_ert_rtw/onboard_matlab.c ****   int64m_T tmp_d;
 639:../custom_mdl/onboard_matlab_ert_rtw/onboard_matlab.c ****   int64m_T tmp_e;
 640:../custom_mdl/onboard_matlab_ert_rtw/onboard_matlab.c ****   int64m_T tmp_f;
 641:../custom_mdl/onboard_matlab_ert_rtw/onboard_matlab.c **** 
 642:../custom_mdl/onboard_matlab_ert_rtw/onboard_matlab.c ****   /* Switch: '<S9>/ 2' incorporates:
 643:../custom_mdl/onboard_matlab_ert_rtw/onboard_matlab.c ****    *  BusSelector: '<S4>/Bus Selector1'
 644:../custom_mdl/onboard_matlab_ert_rtw/onboard_matlab.c ****    *  Constant: '<S9>/   1'
 645:../custom_mdl/onboard_matlab_ert_rtw/onboard_matlab.c ****    *  Constant: '<S9>/   2'
 646:../custom_mdl/onboard_matlab_ert_rtw/onboard_matlab.c ****    *  Gain: '<S9>/Gain6'
 647:../custom_mdl/onboard_matlab_ert_rtw/onboard_matlab.c ****    *  Inport: '<Root>/RC_Data_In'
 648:../custom_mdl/onboard_matlab_ert_rtw/onboard_matlab.c ****    */
 649:../custom_mdl/onboard_matlab_ert_rtw/onboard_matlab.c ****   if ((onboard_matlab_U.RC_Data_In.CMD_3 << 2) >= 0) {
 2016              	0, sp, #228
 2017 0e38 B4AD9FE5 		add	r2, sp, #224
 2018 0e3c F837DAE1 		.loc 1 735 0
 2019 0e40 020213E3 		add	r5, sp, #208
 2020 0e44 0221A013 		.loc 1 723 0
 650:../custom_mdl/onboard_matlab_ert_rtw/onboard_matlab.c ****     rtb_angle_roll = 65536;
 651:../custom_mdl/onboard_matlab_ert_rtw/onboard_matlab.c ****   } else {
 652:../custom_mdl/onboard_matlab_ert_rtw/onboard_matlab.c ****     rtb_angle_roll = 0;
 653:../custom_mdl/onboard_matlab_ert_rtw/onboard_matlab.c ****   }
 654:../custom_mdl/onboard_matlab_ert_rtw/onboard_matlab.c **** 
 655:../custom_mdl/onboard_matlab_ert_rtw/onboard_matlab.c ****   /* End of Switch: '<S9>/ 2' */
 656:../custom_mdl/onboard_matlab_ert_rtw/onboard_matlab.c **** 
 657:../custom_mdl/onboard_matlab_ert_rtw/onboard_matlab.c ****   /* Sum: '<S9>/Sum3' */
 658:../custom_mdl/onboard_matlab_ert_rtw/onboard_matlab.c ****   rtb_Sum3_h = rtb_angle_roll - 65536;
 659:../custom_mdl/onboard_matlab_ert_rtw/onboard_matlab.c **** 
 660:../custom_mdl/onboard_matlab_ert_rtw/onboard_matlab.c ****   /* Sum: '<S11>/Sum2' incorporates:
 661:../custom_mdl/onboard_matlab_ert_rtw/onboard_matlab.c ****    *  RelationalOperator: '<S12>/Compare'
 662:../custom_mdl/onboard_matlab_ert_rtw/onboard_matlab.c ****    *  RelationalOperator: '<S13>/Compare'
 663:../custom_mdl/onboard_matlab_ert_rtw/onboard_matlab.c ****    *  Sum: '<S11>/Sum4'
 664:../custom_mdl/onboard_matlab_ert_rtw/onboard_matlab.c ****    */
 665:../custom_mdl/onboard_matlab_ert_rtw/onboard_matlab.c ****   rtb_IndexVector_idx = rtb_Sum3_h >> 16;
 666:../custom_mdl/onboard_matlab_ert_rtw/onboard_matlab.c ****   if (rtb_IndexVector_idx > 127) {
 667:../custom_mdl/onboard_matlab_ert_rtw/onboard_matlab.c ****     rtb_IndexVector_idx = 127;
 668:../custom_mdl/onboard_matlab_ert_rtw/onboard_matlab.c ****   } else {
 669:../custom_mdl/onboard_matlab_ert_rtw/onboard_matlab.c ****     if (rtb_IndexVector_idx < -128) {
 670:../custom_mdl/onboard_matlab_ert_rtw/onboard_matlab.c ****       rtb_IndexVector_idx = -128;
 671:../custom_mdl/onboard_matlab_ert_rtw/onboard_matlab.c ****     }
 672:../custom_mdl/onboard_matlab_ert_rtw/onboard_matlab.c ****   }
 673:../custom_mdl/onboard_matlab_ert_rtw/onboard_matlab.c **** 
 674:../custom_mdl/onboard_matlab_ert_rtw/onboard_matlab.c ****   rtb_IndexVector_idx += (onboard_matlab_DWork.DiscreteTimeIntegrator1_DSTATE >=
 2021              	r7, sp, #216
 2022 0e48 A83D9FE5 		.loc 1 721 0
 2023              		str	lr, [sp, #228]
 2024 0e4c 0010A003 	.LVL307:
 2025 0e50 C227A011 		.loc 1 722 0
 2026              		str	ip, [sp, #224]
 2027 0e54 E8D04DE2 	.LVL308:
 2028              		.loc 1 723 0
 2029              		str	r7, [sp, #0]
 2030 0e58 01C0A001 		str	r4, [sp, #4]
 2031 0e5c 24108D05 		bl	ssuMultiWordMul
 2032 0e60 24208D15 		.loc 1 735 0
 2033              		mov	r1, r4
 2034 0e64 901D9FE5 		mov	r2, #16
 2035 0e68 002093E5 		mov	r3, r5
 2036 0e6c 8C0D9FE5 		add	r0, sp, #216
 2037              		str	r4, [sp, #0]
 2038 0e70 00C0E013 		bl	sMultiWordShr
 2039 0e74 01E8A003 		.loc 1 736 0
 2040 0e78 00E0A013 		mov	r0, r5
 2041              		bl	MultiWord2sLong
 2042 0e7c 010052E1 		cmp	r0, #0
 2043 0e80 0030A0C3 	.LVL309:
 2044 0e84 0130A0D3 		moveq	r1, r0
 2045 0e88 000052E1 	.LVL310:
 2046 0e8c 013083C2 		moveq	r3, r0
 2047 0e90 0C3083E0 	.LVL311:
 2048              		moveq	r2, r0
 675:../custom_mdl/onboard_matlab_ert_rtw/onboard_matlab.c ****     1686629713) + (onboard_matlab_DWork.DiscreteTimeIntegrator1_DSTATE <=
 676:../custom_mdl/onboard_matlab_ert_rtw/onboard_matlab.c ****                    -1686629713);
 677:../custom_mdl/onboard_matlab_ert_rtw/onboard_matlab.c ****   if (rtb_IndexVector_idx > 127) {
 2049              	
 2050 0e94 7F0053E3 		cmp	r0, #1
 2051 0e98 7F70A0C3 		beq	.L408
 2052 0e9c 08708DC5 		.loc 1 755 0
 2053              		ldr	ip, .L414+4
 2054 0ea0 020000CA 		ldr	r3, .L414+16
 678:../custom_mdl/onboard_matlab_ert_rtw/onboard_matlab.c ****     rtb_IndexVector_idx = 127;
 679:../custom_mdl/onboard_matlab_ert_rtw/onboard_matlab.c ****   }
 680:../custom_mdl/onboard_matlab_ert_rtw/onboard_matlab.c **** 
 681:../custom_mdl/onboard_matlab_ert_rtw/onboard_matlab.c ****   rtb_Sum2 = (int8_T)rtb_IndexVector_idx;
 682:../custom_mdl/onboard_matlab_ert_rtw/onboard_matlab.c **** 
 683:../custom_mdl/onboard_matlab_ert_rtw/onboard_matlab.c ****   /* End of Sum: '<S11>/Sum2' */
 684:../custom_mdl/onboard_matlab_ert_rtw/onboard_matlab.c **** 
 685:../custom_mdl/onboard_matlab_ert_rtw/onboard_matlab.c ****   /* DiscreteIntegrator: '<S11>/Discrete-Time Integrator1' */
 686:../custom_mdl/onboard_matlab_ert_rtw/onboard_matlab.c ****   if ((rtb_Sum2 != 0) || (onboard_matlab_DWork.DiscreteTimeIntegrator1_PrevRes
 2055              	14:
 2056 0ea4 FF3013E2 		ldr	r2, [ip, #0]
 2057              	.LVL315:
 2058 0ea8 08308DE5 		cmp	r2, r3
 2059 0eac DC01000A 		ble	.L329
 2060              		.loc 1 756 0
 2061              		mvn	r3, #-1275068414
 687:../custom_mdl/onboard_matlab_ert_rtw/onboard_matlab.c ****                           != 0)) {
 688:../custom_mdl/onboard_matlab_ert_rtw/onboard_matlab.c ****     onboard_matlab_DWork.DiscreteTimeIntegrator1_DSTATE = 0;
 2062              	, r3, #10092544
 2063 0eb0 401D9FE5 		sub	r3, r3, #3584
 2064 0eb4 0030A0E3 		cmp	r2, r3
 2065              		.loc 1 758 0
 2066 0eb8 003081E5 		suble	r2, r2, #843055104
 2067              		.loc 1 762 0
 689:../custom_mdl/onboard_matlab_ert_rtw/onboard_matlab.c ****   }
 690:../custom_mdl/onboard_matlab_ert_rtw/onboard_matlab.c **** 
 691:../custom_mdl/onboard_matlab_ert_rtw/onboard_matlab.c ****   if (onboard_matlab_DWork.DiscreteTimeIntegrator1_DSTATE >= 1686629713) {
 692:../custom_mdl/onboard_matlab_ert_rtw/onboard_matlab.c ****     onboard_matlab_DWork.DiscreteTimeIntegrator1_DSTATE = 1686629713;
 693:../custom_mdl/onboard_matlab_ert_rtw/onboard_matlab.c ****   } else {
 694:../custom_mdl/onboard_matlab_ert_rtw/onboard_matlab.c ****     if (onboard_matlab_DWork.DiscreteTimeIntegrator1_DSTATE <= -1686629713) {
 695:../custom_mdl/onboard_matlab_ert_rtw/onboard_matlab.c ****       onboard_matlab_DWork.DiscreteTimeIntegrator1_DSTATE = -1686629713;
 696:../custom_mdl/onboard_matlab_ert_rtw/onboard_matlab.c ****     }
 697:../custom_mdl/onboard_matlab_ert_rtw/onboard_matlab.c ****   }
 698:../custom_mdl/onboard_matlab_ert_rtw/onboard_matlab.c **** 
 699:../custom_mdl/onboard_matlab_ert_rtw/onboard_matlab.c ****   /* DiscreteIntegrator: '<S11>/Discrete-Time Integrator2' */
 700:../custom_mdl/onboard_matlab_ert_rtw/onboard_matlab.c ****   if ((rtb_Sum3_h != 0) || (onboard_matlab_DWork.DiscreteTimeIntegrator2_PrevRes
 2068              		r2, r2, #-1677721600
 2069 0ebc 24709DE5 		.loc 1 758 0
 2070 0ec0 000057E3 		suble	r2, r2, #259072
 2071 0ec4 5201001A 		.loc 1 762 0
 2072 0ec8 28CD9FE5 		subgt	r2, r2, #8847360
 2073 0ecc DB30DCE1 		.loc 1 758 0
 2074 0ed0 000053E3 		suble	r2, r2, #680
 2075 0ed4 4E01001A 		.loc 1 762 0
 2076              		subgt	r2, r2, #60672
 701:../custom_mdl/onboard_matlab_ert_rtw/onboard_matlab.c ****        != 0)) {
 702:../custom_mdl/onboard_matlab_ert_rtw/onboard_matlab.c ****     onboard_matlab_DWork.DiscreteTimeIntegrator2_DSTATE = 0;
 703:../custom_mdl/onboard_matlab_ert_rtw/onboard_matlab.c ****   }
 704:../custom_mdl/onboard_matlab_ert_rtw/onboard_matlab.c **** 
 705:../custom_mdl/onboard_matlab_ert_rtw/onboard_matlab.c ****   /* Saturate: '<S9>/Saturation4' incorporates:
 706:../custom_mdl/onboard_matlab_ert_rtw/onboard_matlab.c ****    *  BusSelector: '<S7>/Bus Selector'
 707:../custom_mdl/onboard_matlab_ert_rtw/onboard_matlab.c ****    *  Inport: '<Root>/UART_Data_In'
 708:../custom_mdl/onboard_matlab_ert_rtw/onboard_matlab.c ****    */
 709:../custom_mdl/onboard_matlab_ert_rtw/onboard_matlab.c ****   if (onboard_matlab_U.UART_Data_In.uart_ctrl_11 >= 2048) {
 2077              	58 0
 2078 0ed8 B839DAE1 		suble	r2, r2, #1
 2079 0edc 0338A0E1 		movle	r6, #1
 2080 0ee0 4328A0E1 	.LVL316:
 2081 0ee4 020B52E3 		.loc 1 762 0
 2082 0ee8 02C0A0A3 		subgt	r2, r2, #81
 2083 0eec 030000AA 		movgt	r6, #0
 710:../custom_mdl/onboard_matlab_ert_rtw/onboard_matlab.c ****     tmp = 2U;
 711:../custom_mdl/onboard_matlab_ert_rtw/onboard_matlab.c ****   } else if (onboard_matlab_U.UART_Data_In.uart_ctrl_11 <= 0) {
 2084              		.loc 1 783 0
 2085 0ef0 000052E3 		ldr	r4, .L414+20
 2086 0ef4 433DA0C1 	.LVL317:
 2087 0ef8 00C0A0D3 		mov	r8, #0
 2088 0efc FFC003C2 	.LVL318:
 2089              		ldr	r5, .L414+24
 712:../custom_mdl/onboard_matlab_ert_rtw/onboard_matlab.c ****     tmp = 0U;
 713:../custom_mdl/onboard_matlab_ert_rtw/onboard_matlab.c ****   } else {
 714:../custom_mdl/onboard_matlab_ert_rtw/onboard_matlab.c ****     tmp = (uint8_T)((int16_T)((onboard_matlab_U.UART_Data_In.uart_ctrl_11 < 0 ?
 715:../custom_mdl/onboard_matlab_ert_rtw/onboard_matlab.c ****       1023 : 0) + onboard_matlab_U.UART_Data_In.uart_ctrl_11) >> 10);
 716:../custom_mdl/onboard_matlab_ert_rtw/onboard_matlab.c ****   }
 717:../custom_mdl/onboard_matlab_ert_rtw/onboard_matlab.c **** 
 718:../custom_mdl/onboard_matlab_ert_rtw/onboard_matlab.c ****   /* End of Saturate: '<S9>/Saturation4' */
 719:../custom_mdl/onboard_matlab_ert_rtw/onboard_matlab.c **** 
 720:../custom_mdl/onboard_matlab_ert_rtw/onboard_matlab.c ****   /* Product: '<S9>/Product' */
 721:../custom_mdl/onboard_matlab_ert_rtw/onboard_matlab.c ****   tmp_3 = (uint32_T)rtb_angle_roll;
 722:../custom_mdl/onboard_matlab_ert_rtw/onboard_matlab.c ****   tmp_4 = tmp;
 723:../custom_mdl/onboard_matlab_ert_rtw/onboard_matlab.c ****   ssuMultiWordMul(&tmp_3, 1, &tmp_4, 1, &tmp_2.chunks[0U], 2);
 2090              	1, r2, asl #2
 2091 0f00 0110A0E3 	.LVL319:
 2092 0f04 0240A0E3 		mov	ip, r8
 2093 0f08 0130A0E1 	.LVL320:
 2094 0f0c E4008DE2 		mov	lr, r4
 2095 0f10 E0208DE2 	.LVL321:
 724:../custom_mdl/onboard_matlab_ert_rtw/onboard_matlab.c **** 
 725:../custom_mdl/onboard_matlab_ert_rtw/onboard_matlab.c ****   /* MultiPortSwitch: '<S9>/Index Vector' incorporates:
 726:../custom_mdl/onboard_matlab_ert_rtw/onboard_matlab.c ****    *  BusSelector: '<S7>/Bus Selector'
 727:../custom_mdl/onboard_matlab_ert_rtw/onboard_matlab.c ****    *  Constant: '<S11>/Amplitude5'
 728:../custom_mdl/onboard_matlab_ert_rtw/onboard_matlab.c ****    *  Constant: '<S11>/Amplitude6'
 729:../custom_mdl/onboard_matlab_ert_rtw/onboard_matlab.c ****    *  Constant: '<S11>/Amplitude7'
 730:../custom_mdl/onboard_matlab_ert_rtw/onboard_matlab.c ****    *  Constant: '<S9>/   '
 731:../custom_mdl/onboard_matlab_ert_rtw/onboard_matlab.c ****    *  Gain: '<S11>/Gain9'
 732:../custom_mdl/onboard_matlab_ert_rtw/onboard_matlab.c ****    *  Gain: '<S9>/Gain4'
 733:../custom_mdl/onboard_matlab_ert_rtw/onboard_matlab.c ****    *  Inport: '<Root>/UART_Data_In'
 734:../custom_mdl/onboard_matlab_ert_rtw/onboard_matlab.c ****    */
 735:../custom_mdl/onboard_matlab_ert_rtw/onboard_matlab.c ****   sMultiWordShr(&tmp_2.chunks[0U], 2, 16U, &tmp_1.chunks[0U], 2);
 2096              	0, r8
 2097 0f14 D0508DE2 		b	.L338
 2098              	.LVL322:
 2099 0f18 D8708DE2 	.L409:
 2100              		.loc 1 800 0
 2101 0f1c E4E08DE5 		mov	ip, r8, asr r3
 2102              		.loc 1 799 0
 2103              		mov	r4, lr, asr r3
 2104 0f20 E0C08DE5 	.LVL323:
 2105              	.L338:
 2106              		.loc 1 789 0
 2107 0f24 00708DE5 		cmp	r1, #0
 2108 0f28 04408DE5 		.loc 1 790 0
 2109 0f2c FEFFFFEB 		ldrlt	r3, [r5, #0]
 2110              		.loc 1 794 0
 2111 0f30 0410A0E1 		ldrge	r3, [r5, #0]
 2112 0f34 1020A0E3 		.loc 1 789 0
 2113 0f38 0530A0E1 		mov	r2, r0
 2114 0f3c D8008DE2 	.LVL324:
 2115 0f40 00408DE5 		.loc 1 792 0
 2116 0f44 FEFFFFEB 		movge	r2, r0
 736:../custom_mdl/onboard_matlab_ert_rtw/onboard_matlab.c ****   switch (MultiWord2sLong(&tmp_1.chunks[0U])) {
 2117              	, r0, #1
 2118 0f48 0500A0E1 		.loc 1 790 0
 2119 0f4c FEFFFFEB 		addlt	r1, r1, r3
 2120 0f50 000050E3 		.loc 1 794 0
 2121              		rsbge	r1, r3, r1
 2122 0f54 0010A001 		.loc 1 791 0
 2123              		addlt	lr, lr, ip
 2124 0f58 0030A001 		.loc 1 792 0
 2125              		rsblt	r8, r4, r8
 2126 0f5c 0020A001 		.loc 1 795 0
 2127              		rsbge	lr, ip, lr
 2128 0f60 9D00000A 		.loc 1 796 0
 2129              		addge	r8, r8, r4
 2130 0f64 010050E3 		.loc 1 788 0
 2131 0f68 ED02000A 		cmp	r0, #11
 737:../custom_mdl/onboard_matlab_ert_rtw/onboard_matlab.c ****    case 0:
 738:../custom_mdl/onboard_matlab_ert_rtw/onboard_matlab.c ****     rtb_angle_roll = 0;
 739:../custom_mdl/onboard_matlab_ert_rtw/onboard_matlab.c ****     rtb_IndexVector_idx = 0;
 740:../custom_mdl/onboard_matlab_ert_rtw/onboard_matlab.c ****     xtmp = 0;
 741:../custom_mdl/onboard_matlab_ert_rtw/onboard_matlab.c ****     ytmp = 0;
 742:../custom_mdl/onboard_matlab_ert_rtw/onboard_matlab.c ****     break;
 743:../custom_mdl/onboard_matlab_ert_rtw/onboard_matlab.c **** 
 744:../custom_mdl/onboard_matlab_ert_rtw/onboard_matlab.c ****    case 1:
 745:../custom_mdl/onboard_matlab_ert_rtw/onboard_matlab.c ****     rtb_angle_roll = 1280 * onboard_matlab_U.UART_Data_In.uart_ctrl_02;
 746:../custom_mdl/onboard_matlab_ert_rtw/onboard_matlab.c ****     rtb_IndexVector_idx = 1280 * onboard_matlab_U.UART_Data_In.uart_ctrl_03;
 747:../custom_mdl/onboard_matlab_ert_rtw/onboard_matlab.c ****     xtmp = 1280 * onboard_matlab_U.UART_Data_In.uart_ctrl_04;
 748:../custom_mdl/onboard_matlab_ert_rtw/onboard_matlab.c ****     ytmp = 1280 * onboard_matlab_U.UART_Data_In.uart_ctrl_05;
 749:../custom_mdl/onboard_matlab_ert_rtw/onboard_matlab.c ****     break;
 750:../custom_mdl/onboard_matlab_ert_rtw/onboard_matlab.c **** 
 751:../custom_mdl/onboard_matlab_ert_rtw/onboard_matlab.c ****    default:
 752:../custom_mdl/onboard_matlab_ert_rtw/onboard_matlab.c ****     /* Trigonometry: '<S11>/Trigonometric Function1' incorporates:
 753:../custom_mdl/onboard_matlab_ert_rtw/onboard_matlab.c ****      *  DiscreteIntegrator: '<S11>/Discrete-Time Integrator1'
 754:../custom_mdl/onboard_matlab_ert_rtw/onboard_matlab.c ****      */
 755:../custom_mdl/onboard_matlab_ert_rtw/onboard_matlab.c ****     if (onboard_matlab_DWork.DiscreteTimeIntegrator1_DSTATE > 421657428) {
 2132              	add	r3, r2, #1
 2133 0f6c 84CC9FE5 		.loc 1 796 0
 2134 0f70 8C3C9FE5 		add	r5, r5, #4
 2135              		.loc 1 788 0
 2136 0f74 00209CE5 		bne	.L409
 2137              		.loc 1 819 0
 2138 0f78 030052E1 		ldr	ip, .L414+28
 2139 0f7c 100200DA 	.LVL325:
 756:../custom_mdl/onboard_matlab_ert_rtw/onboard_matlab.c ****       if (onboard_matlab_DWork.DiscreteTimeIntegrator1_DSTATE - 843314857 <=
 2140              	813 0
 2141 0f80 AD33E0E3 		ldr	lr, [sp, #36]
 2142 0f84 9A3843E2 	.LVL326:
 2143 0f88 0E3C43E2 		.loc 1 819 0
 2144 0f8c 030052E1 		ldmia	ip, {r0, r1, r2, r3}
 757:../custom_mdl/onboard_matlab_ert_rtw/onboard_matlab.c ****           421657428) {
 758:../custom_mdl/onboard_matlab_ert_rtw/onboard_matlab.c ****         rtb_angle_roll = onboard_matlab_DWork.DiscreteTimeIntegrator1_DSTATE -
 2145              	27:
 2146 0f90 C92542D2 		.loc 1 824 0
 759:../custom_mdl/onboard_matlab_ert_rtw/onboard_matlab.c ****           843314857;
 760:../custom_mdl/onboard_matlab_ert_rtw/onboard_matlab.c ****         negate = TRUE;
 761:../custom_mdl/onboard_matlab_ert_rtw/onboard_matlab.c ****       } else {
 762:../custom_mdl/onboard_matlab_ert_rtw/onboard_matlab.c ****         rtb_angle_roll = onboard_matlab_DWork.DiscreteTimeIntegrator1_DSTATE -
 2147              	ov	ip, #29440
 2148 0f94 272382C2 		.loc 1 803 0
 2149              		cmp	r6, #0
 2150 0f98 FD2B42D2 		.loc 1 819 0
 2151              		add	r7, sp, #100
 2152 0f9c 872842C2 		.loc 1 813 0
 2153              		add	r6, lr, #65536
 2154 0fa0 AA2F42D2 	.LVL328:
 2155              		.loc 1 824 0
 2156 0fa4 ED2C42C2 		add	ip, ip, #51
 2157              		.loc 1 826 0
 2158 0fa8 012042D2 		mov	r5, #2
 2159 0fac 0160A0D3 		.loc 1 819 0
 2160              		stmia	r7, {r0, r1, r2, r3}
 2161              		.loc 1 804 0
 2162 0fb0 512042C2 		rsbne	r8, r8, #0
 2163 0fb4 0060A0C3 		.loc 1 824 0
 2164              		str	ip, [sp, #228]
 763:../custom_mdl/onboard_matlab_ert_rtw/onboard_matlab.c ****           1686629713;
 764:../custom_mdl/onboard_matlab_ert_rtw/onboard_matlab.c ****         negate = FALSE;
 765:../custom_mdl/onboard_matlab_ert_rtw/onboard_matlab.c ****       }
 766:../custom_mdl/onboard_matlab_ert_rtw/onboard_matlab.c ****     } else if (onboard_matlab_DWork.DiscreteTimeIntegrator1_DSTATE < -421657428)
 767:../custom_mdl/onboard_matlab_ert_rtw/onboard_matlab.c ****     {
 768:../custom_mdl/onboard_matlab_ert_rtw/onboard_matlab.c ****       if (onboard_matlab_DWork.DiscreteTimeIntegrator1_DSTATE + 843314857 >=
 769:../custom_mdl/onboard_matlab_ert_rtw/onboard_matlab.c ****           -421657428) {
 770:../custom_mdl/onboard_matlab_ert_rtw/onboard_matlab.c ****         rtb_angle_roll = onboard_matlab_DWork.DiscreteTimeIntegrator1_DSTATE +
 771:../custom_mdl/onboard_matlab_ert_rtw/onboard_matlab.c ****           843314857;
 772:../custom_mdl/onboard_matlab_ert_rtw/onboard_matlab.c ****         negate = TRUE;
 773:../custom_mdl/onboard_matlab_ert_rtw/onboard_matlab.c ****       } else {
 774:../custom_mdl/onboard_matlab_ert_rtw/onboard_matlab.c ****         rtb_angle_roll = onboard_matlab_DWork.DiscreteTimeIntegrator1_DSTATE +
 775:../custom_mdl/onboard_matlab_ert_rtw/onboard_matlab.c ****           1686629713;
 776:../custom_mdl/onboard_matlab_ert_rtw/onboard_matlab.c ****         negate = FALSE;
 777:../custom_mdl/onboard_matlab_ert_rtw/onboard_matlab.c ****       }
 778:../custom_mdl/onboard_matlab_ert_rtw/onboard_matlab.c ****     } else {
 779:../custom_mdl/onboard_matlab_ert_rtw/onboard_matlab.c ****       rtb_angle_roll = onboard_matlab_DWork.DiscreteTimeIntegrator1_DSTATE;
 780:../custom_mdl/onboard_matlab_ert_rtw/onboard_matlab.c ****       negate = FALSE;
 781:../custom_mdl/onboard_matlab_ert_rtw/onboard_matlab.c ****     }
 782:../custom_mdl/onboard_matlab_ert_rtw/onboard_matlab.c **** 
 783:../custom_mdl/onboard_matlab_ert_rtw/onboard_matlab.c ****     rtb_angle_roll <<= 2;
 2165              		lr, #0
 2166 0fb8 484C9FE5 		movle	r3, #0
 2167              		movgt	r3, #1
 2168 0fbc 0080A0E3 		.loc 1 826 0
 2169              		add	ip, sp, #176
 2170 0fc0 445C9FE5 		.loc 1 814 0
 2171 0fc4 0211A0E1 		cmp	r6, #0
 2172              		.loc 1 810 0
 2173 0fc8 08C0A0E1 		ldr	lr, .L414+4
 2174              		.loc 1 826 0
 2175 0fcc 04E0A0E1 		str	ip, [sp, #0]
 2176              		mov	r1, #1
 2177 0fd0 0800A0E1 		str	r5, [sp, #4]
 2178 0fd4 010000EA 		.loc 1 814 0
 2179              		movgt	r3, #0
 2180              		cmp	r3, #0
 784:../custom_mdl/onboard_matlab_ert_rtw/onboard_matlab.c ****     yn = 0;
 785:../custom_mdl/onboard_matlab_ert_rtw/onboard_matlab.c ****     rtb_IndexVector_idx = 652032978;
 786:../custom_mdl/onboard_matlab_ert_rtw/onboard_matlab.c ****     xtmp = 652032978;
 787:../custom_mdl/onboard_matlab_ert_rtw/onboard_matlab.c ****     ytmp = 0;
 788:../custom_mdl/onboard_matlab_ert_rtw/onboard_matlab.c ****     for (rtb_Gain10 = 0; rtb_Gain10 < 11; rtb_Gain10++) {
 789:../custom_mdl/onboard_matlab_ert_rtw/onboard_matlab.c ****       if (rtb_angle_roll < 0) {
 790:../custom_mdl/onboard_matlab_ert_rtw/onboard_matlab.c ****         rtb_angle_roll += cordicLUT_n11_s32En[rtb_Gain10];
 791:../custom_mdl/onboard_matlab_ert_rtw/onboard_matlab.c ****         rtb_IndexVector_idx += ytmp;
 792:../custom_mdl/onboard_matlab_ert_rtw/onboard_matlab.c ****         yn -= xtmp;
 793:../custom_mdl/onboard_matlab_ert_rtw/onboard_matlab.c ****       } else {
 794:../custom_mdl/onboard_matlab_ert_rtw/onboard_matlab.c ****         rtb_angle_roll -= cordicLUT_n11_s32En[rtb_Gain10];
 795:../custom_mdl/onboard_matlab_ert_rtw/onboard_matlab.c ****         rtb_IndexVector_idx -= ytmp;
 796:../custom_mdl/onboard_matlab_ert_rtw/onboard_matlab.c ****         yn += xtmp;
 797:../custom_mdl/onboard_matlab_ert_rtw/onboard_matlab.c ****       }
 798:../custom_mdl/onboard_matlab_ert_rtw/onboard_matlab.c **** 
 799:../custom_mdl/onboard_matlab_ert_rtw/onboard_matlab.c ****       xtmp = rtb_IndexVector_idx >> (rtb_Gain10 + 1);
 800:../custom_mdl/onboard_matlab_ert_rtw/onboard_matlab.c ****       ytmp = yn >> (rtb_Gain10 + 1);
 2181              	dd	r0, sp, #228
 2182 0fd8 58C3A0E1 		mov	r3, r1
 2183              		add	r2, sp, #224
 2184 0fdc 5E43A0E1 		.loc 1 814 0
 2185              		mvnne	r6, #-2147483648
 2186              	.LVL329:
 2187              		.loc 1 825 0
 2188 0fe0 000051E3 		str	r8, [sp, #224]
 2189              		.loc 1 810 0
 2190 0fe4 003095B5 		ldr	r8, [lr, #4]
 2191              	.LVL330:
 2192 0fe8 003095A5 		.loc 1 826 0
 2193              		bl	sMultiWordMul
 2194 0fec 0020A0E1 		.loc 1 831 0
 2195              		mov	r1, r5
 2196              		mov	r3, #3
 2197 0ff0 0020A0A1 		add	r0, sp, #176
 2198              		add	r2, sp, #156
 2199 0ff4 010080E2 		bl	sMultiWord2MultiWord
 2200              		.loc 1 832 0
 2201 0ff8 031081B0 		ldr	r3, .L414+32
 2202              		add	r4, sp, #184
 2203 0ffc 011063A0 	.LVL331:
 2204              		ldr	r0, [r3, #0]
 2205 1000 0CE08EB0 		mov	r1, r4
 2206              		mov	r2, r5
 2207 1004 088064B0 		bl	sLong2MultiWord
 2208              		.loc 1 833 0
 2209 1008 0EE06CA0 		mov	r0, r4
 2210              		mov	r1, r5
 2211 100c 048088A0 		mov	r2, #30
 2212              		add	r3, sp, #176
 2213 1010 0B0050E3 		str	r5, [sp, #0]
 2214              		bl	sMultiWordShl
 2215 1014 013082E2 		.loc 1 834 0
 2216              		mov	r1, r5
 2217 1018 045085E2 		add	r0, sp, #176
 2218              		add	r2, sp, #144
 2219 101c EDFFFF1A 		mov	r3, #3
 801:../custom_mdl/onboard_matlab_ert_rtw/onboard_matlab.c ****     }
 802:../custom_mdl/onboard_matlab_ert_rtw/onboard_matlab.c **** 
 803:../custom_mdl/onboard_matlab_ert_rtw/onboard_matlab.c ****     if (negate) {
 804:../custom_mdl/onboard_matlab_ert_rtw/onboard_matlab.c ****       yn = -yn;
 805:../custom_mdl/onboard_matlab_ert_rtw/onboard_matlab.c ****     }
 806:../custom_mdl/onboard_matlab_ert_rtw/onboard_matlab.c **** 
 807:../custom_mdl/onboard_matlab_ert_rtw/onboard_matlab.c ****     /* RelationalOperator: '<S11>/Relational Operator' incorporates:
 808:../custom_mdl/onboard_matlab_ert_rtw/onboard_matlab.c ****      *  DiscreteIntegrator: '<S11>/Discrete-Time Integrator2'
 809:../custom_mdl/onboard_matlab_ert_rtw/onboard_matlab.c ****      */
 810:../custom_mdl/onboard_matlab_ert_rtw/onboard_matlab.c ****     rtb_IndexVector_idx = onboard_matlab_DWork.DiscreteTimeIntegrator2_DSTATE;
 811:../custom_mdl/onboard_matlab_ert_rtw/onboard_matlab.c **** 
 812:../custom_mdl/onboard_matlab_ert_rtw/onboard_matlab.c ****     /* Sum: '<S11>/Sum5' */
 813:../custom_mdl/onboard_matlab_ert_rtw/onboard_matlab.c ****     rtb_angle_roll = 65536 + rtb_Sum3_h;
 814:../custom_mdl/onboard_matlab_ert_rtw/onboard_matlab.c ****     if ((rtb_Sum3_h > 0) && (rtb_angle_roll <= 0)) {
 815:../custom_mdl/onboard_matlab_ert_rtw/onboard_matlab.c ****       rtb_angle_roll = MAX_int32_T;
 816:../custom_mdl/onboard_matlab_ert_rtw/onboard_matlab.c ****     }
 817:../custom_mdl/onboard_matlab_ert_rtw/onboard_matlab.c **** 
 818:../custom_mdl/onboard_matlab_ert_rtw/onboard_matlab.c ****     /* Gain: '<S11>/Gain9' */
 819:../custom_mdl/onboard_matlab_ert_rtw/onboard_matlab.c ****     tmp_7 = onboard_matlab_ConstP.Gain9_Gain;
 2220              		add	r1, sp, #144
 2221 1020 E8CB9FE5 		add	r2, sp, #132
 2222              		mov	r3, #3
 2223              		add	r0, sp, #156
 2224 1024 24E09DE5 		bl	MultiWordAdd
 2225              		.loc 1 836 0
 2226              		mov	r3, r5
 2227 1028 0F009CE8 		add	r0, sp, #132
 2228              		mov	r1, #3
 820:../custom_mdl/onboard_matlab_ert_rtw/onboard_matlab.c **** 
 821:../custom_mdl/onboard_matlab_ert_rtw/onboard_matlab.c ****     /* Product: '<S11>/Product1' incorporates:
 822:../custom_mdl/onboard_matlab_ert_rtw/onboard_matlab.c ****      *  Trigonometry: '<S11>/Trigonometric Function1'
 823:../custom_mdl/onboard_matlab_ert_rtw/onboard_matlab.c ****      */
 824:../custom_mdl/onboard_matlab_ert_rtw/onboard_matlab.c ****     tmp_3 = 29491U;
 2229              	sp, #216
 2230 102c 73CCA0E3 		bl	sMultiWord2sMultiWordSat
 2231              		.loc 1 843 0
 2232 1030 000056E3 		ldr	r3, .L414+36
 2233              		mov	ip, r8, lsr #4
 2234 1034 64708DE2 		ldr	r2, [r3, #0]
 2235              		and	ip, ip, #1
 2236 1038 01688EE2 		add	ip, ip, r8, asr #5
 2237              		.loc 1 846 0
 2238              		mov	r1, #1
 2239 103c 33C08CE2 		.loc 1 843 0
 825:../custom_mdl/onboard_matlab_ert_rtw/onboard_matlab.c ****     tmp_4 = (uint32_T)yn;
 826:../custom_mdl/onboard_matlab_ert_rtw/onboard_matlab.c ****     sMultiWordMul(&tmp_3, 1, &tmp_4, 1, &tmp_b.chunks[0U], 2);
 2240              	
 2241 1040 0250A0E3 		movgt	ip, #0
 2242              		movle	ip, #1
 2243 1044 0F0087E8 		.loc 1 846 0
 2244              		mov	r3, r1
 2245 1048 00806812 		add	r0, sp, #228
 2246              		add	r2, sp, #224
 2247 104c E4C08DE5 		.loc 1 843 0
 2248              		str	ip, [sp, #228]
 2249 1050 00005EE3 		.loc 1 846 0
 2250 1054 0030A0D3 		add	ip, sp, #176
 2251 1058 0130A0C3 		str	ip, [sp, #0]
 2252              		.loc 1 849 0
 2253 105c B0C08DE2 		mov	r4, #4
 2254              		.loc 1 845 0
 2255 1060 000056E3 		str	r6, [sp, #224]
 2256              		.loc 1 846 0
 2257 1064 8CEB9FE5 		str	r5, [sp, #4]
 2258              		bl	sMultiWordMul
 2259 1068 00C08DE5 		.loc 1 849 0
 2260 106c 0110A0E3 		mov	r1, r5
 2261 1070 04508DE5 		mov	r3, r5
 2262              		add	r0, sp, #216
 2263 1074 0030A0C3 		add	r5, sp, #116
 2264 1078 000053E3 		add	r2, sp, #176
 2265              		str	r5, [sp, #0]
 2266 107c E4008DE2 		str	r4, [sp, #4]
 2267 1080 0130A0E1 		bl	sMultiWordMul
 2268 1084 E0208DE2 		.loc 1 853 0
 2269              		mov	r1, r4
 2270 1088 0261E013 		mov	r2, r5
 2271              		add	r4, r4, #3
 2272              		mov	r3, r1
 2273 108c E0808DE5 		mov	r0, r7
 2274              		add	r5, sp, #44
 2275 1090 04809EE5 		.loc 1 855 0
 2276              		add	r6, sp, #72
 2277              		.loc 1 853 0
 2278 1094 FEFFFFEB 		str	r5, [sp, #0]
 827:../custom_mdl/onboard_matlab_ert_rtw/onboard_matlab.c **** 
 828:../custom_mdl/onboard_matlab_ert_rtw/onboard_matlab.c ****     /* Sum: '<S11>/Sum1' incorporates:
 829:../custom_mdl/onboard_matlab_ert_rtw/onboard_matlab.c ****      *  Constant: '<S11>/Amplitude2'
 830:../custom_mdl/onboard_matlab_ert_rtw/onboard_matlab.c ****      */
 831:../custom_mdl/onboard_matlab_ert_rtw/onboard_matlab.c ****     sMultiWord2MultiWord(&tmp_b.chunks[0U], 2, &tmp_a.chunks[0U], 3);
 2279              	loc 1 855 0
 2280 1098 0510A0E1 		mov	r1, r4
 2281 109c 0330A0E3 		mov	r2, #150
 2282 10a0 B0008DE2 		mov	r3, r6
 2283 10a4 9C208DE2 		mov	r0, r5
 2284 10a8 FEFFFFEB 		str	r4, [sp, #0]
 832:../custom_mdl/onboard_matlab_ert_rtw/onboard_matlab.c ****     sLong2MultiWord(uart_up_p_11, &tmp_d.chunks[0U], 2);
 2285              	ultiWordShr
 2286 10ac 603B9FE5 		.loc 1 856 0
 2287 10b0 B8408DE2 		mov	r0, r6
 2288              		bl	MultiWord2sLong
 2289 10b4 000093E5 		mov	r1, #0
 2290 10b8 0410A0E1 	.LVL332:
 2291 10bc 0520A0E1 		mov	r3, r0
 2292 10c0 FEFFFFEB 	.LVL333:
 833:../custom_mdl/onboard_matlab_ert_rtw/onboard_matlab.c ****     sMultiWordShl(&tmp_d.chunks[0U], 2, 30U, &tmp_b.chunks[0U], 2);
 2293              	 r1
 2294 10c4 0400A0E1 	.LVL334:
 2295 10c8 0510A0E1 		mov	r0, #3276800
 2296 10cc 1E20A0E3 	.LVL335:
 2297 10d0 B0308DE2 	.L328:
 2298 10d4 00508DE5 		.loc 1 866 0
 2299 10d8 FEFFFFEB 		cmp	r3, #13107200
 834:../custom_mdl/onboard_matlab_ert_rtw/onboard_matlab.c ****     sMultiWord2MultiWord(&tmp_b.chunks[0U], 2, &tmp_c.chunks[0U], 3);
 2300              	fp, #200
 2301 10dc 0510A0E1 	.LVL336:
 2302 10e0 B0008DE2 		bge	.L351
 2303 10e4 90208DE2 		.loc 1 868 0
 2304 10e8 0330A0E3 		cmp	r3, #65536
 2305 10ec FEFFFFEB 		movle	fp, #1
 835:../custom_mdl/onboard_matlab_ert_rtw/onboard_matlab.c ****     MultiWordAdd(&tmp_a.chunks[0U], &tmp_c.chunks[0U], &tmp_9.chunks[0U], 3);
 2306              	1 871 0
 2307 10f0 90108DE2 		movgt	fp, r3, lsr #16
 2308 10f4 84208DE2 	.L351:
 2309 10f8 0330A0E3 		.loc 1 874 0
 2310 10fc 9C008DE2 		cmp	r1, #13107200
 2311 1100 FEFFFFEB 		movge	r9, #200
 836:../custom_mdl/onboard_matlab_ert_rtw/onboard_matlab.c ****     sMultiWord2sMultiWordSat(&tmp_9.chunks[0U], 3, &tmp_2.chunks[0U], 2);
 2312              	7:
 2313 1104 0530A0E1 		bge	.L356
 2314 1108 84008DE2 		.loc 1 876 0
 2315 110c 0310A0E3 		cmp	r1, #65536
 2316 1110 D8208DE2 		movle	r9, #1
 2317 1114 FEFFFFEB 		.loc 1 879 0
 837:../custom_mdl/onboard_matlab_ert_rtw/onboard_matlab.c **** 
 838:../custom_mdl/onboard_matlab_ert_rtw/onboard_matlab.c ****     /* Product: '<S11>/Product2' incorporates:
 839:../custom_mdl/onboard_matlab_ert_rtw/onboard_matlab.c ****      *  Constant: '<S11>/Sweep sinyal suresi'
 840:../custom_mdl/onboard_matlab_ert_rtw/onboard_matlab.c ****      *  RelationalOperator: '<S11>/Relational Operator'
 841:../custom_mdl/onboard_matlab_ert_rtw/onboard_matlab.c ****      *  Sum: '<S11>/Sum5'
 842:../custom_mdl/onboard_matlab_ert_rtw/onboard_matlab.c ****      */
 843:../custom_mdl/onboard_matlab_ert_rtw/onboard_matlab.c ****     tmp_3 = (uint32_T)(((rtb_IndexVector_idx & 16) != 0) + (rtb_IndexVector_idx >>
 2318              		r9, r1, lsr #16
 2319 1118 F83A9FE5 	.L356:
 2320 111c 28C2A0E1 		.loc 1 882 0
 2321 1120 002093E5 		cmp	r0, #13107200
 2322 1124 01C00CE2 		movge	r7, #200
 2323 1128 C8C28CE0 	.LVL338:
 844:../custom_mdl/onboard_matlab_ert_rtw/onboard_matlab.c ****       5) <= uart_up_p_14);
 845:../custom_mdl/onboard_matlab_ert_rtw/onboard_matlab.c ****     tmp_4 = (uint32_T)rtb_angle_roll;
 846:../custom_mdl/onboard_matlab_ert_rtw/onboard_matlab.c ****     sMultiWordMul(&tmp_3, 1, &tmp_4, 1, &tmp_b.chunks[0U], 2);
 2324              	L361
 2325 112c 0110A0E3 		.loc 1 884 0
 2326              		cmp	r0, #65536
 2327 1130 02005CE1 		movle	r7, #1
 2328 1134 00C0A0C3 		.loc 1 887 0
 2329 1138 01C0A0D3 		movgt	r7, r0, lsr #16
 2330              	.L361:
 2331 113c 0130A0E1 		.loc 1 890 0
 2332 1140 E4008DE2 		cmp	r2, #13107200
 2333 1144 E0208DE2 		movge	ip, #200
 2334              	.LVL339:
 2335 1148 E4C08DE5 		bge	.L366
 2336              		.loc 1 892 0
 2337 114c B0C08DE2 		cmp	r2, #65536
 2338 1150 00C08DE5 		movle	ip, #1
 847:../custom_mdl/onboard_matlab_ert_rtw/onboard_matlab.c **** 
 848:../custom_mdl/onboard_matlab_ert_rtw/onboard_matlab.c ****     /* Product: '<S11>/Product3' */
 849:../custom_mdl/onboard_matlab_ert_rtw/onboard_matlab.c ****     sMultiWordMul(&tmp_2.chunks[0U], 2, &tmp_b.chunks[0U], 2, &tmp_8.chunks[0U],
 2339              	movgt	ip, r2, lsr #16
 2340 1154 0440A0E3 	.L366:
 2341              		.loc 1 913 0
 2342 1158 E0608DE5 		ldr	r8, .L414+40
 2343              	.LVL340:
 2344 115c 04508DE5 		.loc 1 944 0
 2345 1160 FEFFFFEB 		ldr	lr, .L414+4
 2346              		.loc 1 916 0
 2347 1164 0510A0E1 		strh	ip, [r8, #6]	@ movhi
 2348 1168 0530A0E1 		.loc 1 943 0
 2349 116c D8008DE2 		ldr	ip, .L414+44
 2350 1170 74508DE2 	.LVL341:
 2351 1174 B0208DE2 		.loc 1 944 0
 2352 1178 00508DE5 		ldr	r5, [lr, #4]
 2353 117c 04408DE5 		.loc 1 915 0
 2354 1180 FEFFFFEB 		strh	r7, [r8, #4]	@ movhi
 850:../custom_mdl/onboard_matlab_ert_rtw/onboard_matlab.c ****                   4);
 851:../custom_mdl/onboard_matlab_ert_rtw/onboard_matlab.c **** 
 852:../custom_mdl/onboard_matlab_ert_rtw/onboard_matlab.c ****     /* Gain: '<S11>/Gain9' */
 853:../custom_mdl/onboard_matlab_ert_rtw/onboard_matlab.c ****     sMultiWordMul(&tmp_7.chunks[0U], 4, &tmp_8.chunks[0U], 4, &tmp_6.chunks[0U],
 2355              	ov	lr, #0	@ movhi
 2356 1184 0410A0E1 		.loc 1 936 0
 2357 1188 0520A0E1 		mov	r6, #1
 2358 118c 034084E2 		.loc 1 919 0
 2359 1190 0130A0E1 		mov	r7, #100	@ movhi
 2360 1194 0700A0E1 	.LVL342:
 2361 1198 2C508DE2 		.loc 1 943 0
 854:../custom_mdl/onboard_matlab_ert_rtw/onboard_matlab.c ****                   7);
 855:../custom_mdl/onboard_matlab_ert_rtw/onboard_matlab.c ****     sMultiWordShr(&tmp_6.chunks[0U], 7, 150U, &tmp_5.chunks[0U], 7);
 2362              	, [sp, #228]
 2363 119c 48608DE2 		.loc 1 938 0
 2364              		mov	ip, #31	@ movhi
 2365 11a0 00508DE5 		strh	ip, [r8, #32]	@ movhi
 2366 11a4 04408DE5 		.loc 1 945 0
 2367 11a8 FEFFFFEB 		mov	r4, #2
 2368              		.loc 1 937 0
 2369 11ac 0410A0E1 		strb	lr, [r8, #30]
 2370 11b0 9620A0E3 		.loc 1 917 0
 2371 11b4 0630A0E1 		strh	lr, [r8, #8]	@ movhi
 2372 11b8 0500A0E1 		.loc 1 918 0
 2373 11bc 00408DE5 		strh	lr, [r8, #10]	@ movhi
 2374 11c0 FEFFFFEB 		.loc 1 922 0
 856:../custom_mdl/onboard_matlab_ert_rtw/onboard_matlab.c ****     rtb_angle_roll = MultiWord2sLong(&tmp_5.chunks[0U]);
 2375              	, #18]	@ movhi
 2376 11c4 0600A0E1 		.loc 1 923 0
 2377 11c8 FEFFFFEB 		strh	lr, [r8, #20]	@ movhi
 2378 11cc 0010A0E3 		.loc 1 924 0
 2379              		strh	lr, [r8, #22]	@ movhi
 2380 11d0 0030A0E1 		.loc 1 925 0
 2381              		strh	lr, [r8, #24]	@ movhi
 2382 11d4 0120A0E1 		.loc 1 926 0
 2383              		strh	lr, [r8, #26]	@ movhi
 2384 11d8 3208A0E3 		.loc 1 935 0
 2385              		strb	lr, [r8, #28]
 2386              		.loc 1 913 0
 857:../custom_mdl/onboard_matlab_ert_rtw/onboard_matlab.c ****     rtb_IndexVector_idx = 0;
 858:../custom_mdl/onboard_matlab_ert_rtw/onboard_matlab.c ****     xtmp = 0;
 859:../custom_mdl/onboard_matlab_ert_rtw/onboard_matlab.c ****     ytmp = 3276800;
 860:../custom_mdl/onboard_matlab_ert_rtw/onboard_matlab.c ****     break;
 861:../custom_mdl/onboard_matlab_ert_rtw/onboard_matlab.c ****   }
 862:../custom_mdl/onboard_matlab_ert_rtw/onboard_matlab.c **** 
 863:../custom_mdl/onboard_matlab_ert_rtw/onboard_matlab.c ****   /* End of MultiPortSwitch: '<S9>/Index Vector' */
 864:../custom_mdl/onboard_matlab_ert_rtw/onboard_matlab.c **** 
 865:../custom_mdl/onboard_matlab_ert_rtw/onboard_matlab.c ****   /* Saturate: '<S2>/Saturation4' */
 866:../custom_mdl/onboard_matlab_ert_rtw/onboard_matlab.c ****   if (rtb_angle_roll >= 13107200) {
 2387              	8, #0]	@ movhi
 2388 11dc 320753E3 		.loc 1 945 0
 2389 11e0 C8B0A0A3 		add	lr, sp, #176
 2390              		.loc 1 914 0
 2391 11e4 020000AA 		strh	r9, [r8, #2]	@ movhi
 867:../custom_mdl/onboard_matlab_ert_rtw/onboard_matlab.c ****     rtb_Saturation4_idx = 200;
 868:../custom_mdl/onboard_matlab_ert_rtw/onboard_matlab.c ****   } else if (rtb_angle_roll <= 65536) {
 2392              	 1 919 0
 2393 11e8 010853E3 		strh	r7, [r8, #12]	@ movhi
 2394 11ec 01B0A0D3 		.loc 1 920 0
 869:../custom_mdl/onboard_matlab_ert_rtw/onboard_matlab.c ****     rtb_Saturation4_idx = 1;
 870:../custom_mdl/onboard_matlab_ert_rtw/onboard_matlab.c ****   } else {
 871:../custom_mdl/onboard_matlab_ert_rtw/onboard_matlab.c ****     rtb_Saturation4_idx = (int16_T)(rtb_angle_roll >> 16);
 2395              	rh	r7, [r8, #14]	@ movhi
 2396 11f0 23B8A0C1 		.loc 1 921 0
 2397              		strh	r7, [r8, #16]	@ movhi
 872:../custom_mdl/onboard_matlab_ert_rtw/onboard_matlab.c ****   }
 873:../custom_mdl/onboard_matlab_ert_rtw/onboard_matlab.c **** 
 874:../custom_mdl/onboard_matlab_ert_rtw/onboard_matlab.c ****   if (xtmp >= 13107200) {
 2398              	oc 1 936 0
 2399 11f4 320751E3 		strb	r6, [r8, #29]
 2400 11f8 C890A0A3 		.loc 1 945 0
 2401              		mov	r1, r6
 2402 11fc 020000AA 	.LVL343:
 875:../custom_mdl/onboard_matlab_ert_rtw/onboard_matlab.c ****     rtb_Saturation4_idx_0 = 200;
 876:../custom_mdl/onboard_matlab_ert_rtw/onboard_matlab.c ****   } else if (xtmp <= 65536) {
 2403              	r0, sp, #228
 2404 1200 010851E3 	.LVL344:
 2405 1204 0190A0D3 		add	r2, sp, #224
 877:../custom_mdl/onboard_matlab_ert_rtw/onboard_matlab.c ****     rtb_Saturation4_idx_0 = 1;
 878:../custom_mdl/onboard_matlab_ert_rtw/onboard_matlab.c ****   } else {
 879:../custom_mdl/onboard_matlab_ert_rtw/onboard_matlab.c ****     rtb_Saturation4_idx_0 = (int16_T)(xtmp >> 16);
 2406              	L345:
 2407 1208 2198A0C1 		mov	r3, r6
 2408              	.LVL346:
 880:../custom_mdl/onboard_matlab_ert_rtw/onboard_matlab.c ****   }
 881:../custom_mdl/onboard_matlab_ert_rtw/onboard_matlab.c **** 
 882:../custom_mdl/onboard_matlab_ert_rtw/onboard_matlab.c ****   if (ytmp >= 13107200) {
 2409              	r	lr, [sp, #0]
 2410 120c 320750E3 		.loc 1 944 0
 2411 1210 C870A0A3 		str	r5, [sp, #224]
 2412              		.loc 1 945 0
 2413 1214 020000AA 		str	r4, [sp, #4]
 883:../custom_mdl/onboard_matlab_ert_rtw/onboard_matlab.c ****     rtb_Saturation4_idx_1 = 200;
 884:../custom_mdl/onboard_matlab_ert_rtw/onboard_matlab.c ****   } else if (ytmp <= 65536) {
 2414              	MultiWordMul
 2415 1218 010850E3 		.loc 1 950 0
 2416 121c 0170A0D3 		add	r3, sp, #216
 885:../custom_mdl/onboard_matlab_ert_rtw/onboard_matlab.c ****     rtb_Saturation4_idx_1 = 1;
 886:../custom_mdl/onboard_matlab_ert_rtw/onboard_matlab.c ****   } else {
 887:../custom_mdl/onboard_matlab_ert_rtw/onboard_matlab.c ****     rtb_Saturation4_idx_1 = (int16_T)(ytmp >> 16);
 2417              	d	r0, sp, #176
 2418 1220 2078A0C1 		mov	r1, r4
 2419              		mov	r2, #6
 888:../custom_mdl/onboard_matlab_ert_rtw/onboard_matlab.c ****   }
 889:../custom_mdl/onboard_matlab_ert_rtw/onboard_matlab.c **** 
 890:../custom_mdl/onboard_matlab_ert_rtw/onboard_matlab.c ****   if (rtb_IndexVector_idx >= 13107200) {
 2420              	r	r4, [sp, #0]
 2421 1224 320752E3 		bl	sMultiWordShr
 2422 1228 C8C0A0A3 		.loc 1 951 0
 2423              		add	r0, sp, #216
 2424 122c 020000AA 		mov	r1, r4
 891:../custom_mdl/onboard_matlab_ert_rtw/onboard_matlab.c ****     rtb_Gain10 = 200;
 892:../custom_mdl/onboard_matlab_ert_rtw/onboard_matlab.c ****   } else if (rtb_IndexVector_idx <= 65536) {
 2425              	r2, sp, #156
 2426 1230 010852E3 		mov	r3, #3
 2427 1234 01C0A0D3 		bl	sMultiWord2MultiWord
 893:../custom_mdl/onboard_matlab_ert_rtw/onboard_matlab.c ****     rtb_Gain10 = 1;
 894:../custom_mdl/onboard_matlab_ert_rtw/onboard_matlab.c ****   } else {
 895:../custom_mdl/onboard_matlab_ert_rtw/onboard_matlab.c ****     rtb_Gain10 = (int16_T)(rtb_IndexVector_idx >> 16);
 2428              	oc 1 952 0
 2429 1238 22C8A0C1 		ldr	r3, .L414+48
 2430              		add	r1, sp, #176
 896:../custom_mdl/onboard_matlab_ert_rtw/onboard_matlab.c ****   }
 897:../custom_mdl/onboard_matlab_ert_rtw/onboard_matlab.c **** 
 898:../custom_mdl/onboard_matlab_ert_rtw/onboard_matlab.c ****   /* End of Saturate: '<S2>/Saturation4' */
 899:../custom_mdl/onboard_matlab_ert_rtw/onboard_matlab.c **** 
 900:../custom_mdl/onboard_matlab_ert_rtw/onboard_matlab.c ****   /* Outport: '<Root>/LL_CMD_Out' incorporates:
 901:../custom_mdl/onboard_matlab_ert_rtw/onboard_matlab.c ****    *  BusCreator: '<Root>/BusConversion_InsertedFor_LL_CMD_Out_at_inport_0'
 902:../custom_mdl/onboard_matlab_ert_rtw/onboard_matlab.c ****    *  Constant: '<S2>/Constant'
 903:../custom_mdl/onboard_matlab_ert_rtw/onboard_matlab.c ****    *  Constant: '<S2>/Constant1'
 904:../custom_mdl/onboard_matlab_ert_rtw/onboard_matlab.c ****    *  Constant: '<S2>/Constant10'
 905:../custom_mdl/onboard_matlab_ert_rtw/onboard_matlab.c ****    *  Constant: '<S2>/Constant11'
 906:../custom_mdl/onboard_matlab_ert_rtw/onboard_matlab.c ****    *  Constant: '<S2>/Constant12'
 907:../custom_mdl/onboard_matlab_ert_rtw/onboard_matlab.c ****    *  Constant: '<S2>/Constant5'
 908:../custom_mdl/onboard_matlab_ert_rtw/onboard_matlab.c ****    *  Constant: '<S2>/Constant6'
 909:../custom_mdl/onboard_matlab_ert_rtw/onboard_matlab.c ****    *  Constant: '<S2>/Constant7'
 910:../custom_mdl/onboard_matlab_ert_rtw/onboard_matlab.c ****    *  Constant: '<S2>/Constant8'
 911:../custom_mdl/onboard_matlab_ert_rtw/onboard_matlab.c ****    *  Constant: '<S2>/Constant9'
 912:../custom_mdl/onboard_matlab_ert_rtw/onboard_matlab.c ****    */
 913:../custom_mdl/onboard_matlab_ert_rtw/onboard_matlab.c ****   onboard_matlab_Y.LL_CMD_Out.motor_rpm_1 = rtb_Saturation4_idx;
 2431              	r	r0, [r3, #0]
 2432 123c D8899FE5 		mov	r2, r4
 2433              		bl	sLong2MultiWord
 914:../custom_mdl/onboard_matlab_ert_rtw/onboard_matlab.c ****   onboard_matlab_Y.LL_CMD_Out.motor_rpm_2 = rtb_Saturation4_idx_0;
 915:../custom_mdl/onboard_matlab_ert_rtw/onboard_matlab.c ****   onboard_matlab_Y.LL_CMD_Out.motor_rpm_3 = rtb_Saturation4_idx_1;
 916:../custom_mdl/onboard_matlab_ert_rtw/onboard_matlab.c ****   onboard_matlab_Y.LL_CMD_Out.motor_rpm_4 = rtb_Gain10;
 917:../custom_mdl/onboard_matlab_ert_rtw/onboard_matlab.c ****   onboard_matlab_Y.LL_CMD_Out.motor_rpm_5 = 0;
 918:../custom_mdl/onboard_matlab_ert_rtw/onboard_matlab.c ****   onboard_matlab_Y.LL_CMD_Out.motor_rpm_6 = 0;
 919:../custom_mdl/onboard_matlab_ert_rtw/onboard_matlab.c ****   onboard_matlab_Y.LL_CMD_Out.motor_mapped_roll = 100;
 920:../custom_mdl/onboard_matlab_ert_rtw/onboard_matlab.c ****   onboard_matlab_Y.LL_CMD_Out.motor_mapped_pitch = 100;
 921:../custom_mdl/onboard_matlab_ert_rtw/onboard_matlab.c ****   onboard_matlab_Y.LL_CMD_Out.motor_mapped_yaw = 100;
 922:../custom_mdl/onboard_matlab_ert_rtw/onboard_matlab.c ****   onboard_matlab_Y.LL_CMD_Out.motor_mapped_thrust = 0;
 923:../custom_mdl/onboard_matlab_ert_rtw/onboard_matlab.c ****   onboard_matlab_Y.LL_CMD_Out.att_cmd_roll = 0;
 924:../custom_mdl/onboard_matlab_ert_rtw/onboard_matlab.c ****   onboard_matlab_Y.LL_CMD_Out.att_cmd_pitch = 0;
 925:../custom_mdl/onboard_matlab_ert_rtw/onboard_matlab.c ****   onboard_matlab_Y.LL_CMD_Out.att_cmd_yaw = 0;
 926:../custom_mdl/onboard_matlab_ert_rtw/onboard_matlab.c ****   onboard_matlab_Y.LL_CMD_Out.att_cmd_thrust = 0;
 927:../custom_mdl/onboard_matlab_ert_rtw/onboard_matlab.c **** 
 928:../custom_mdl/onboard_matlab_ert_rtw/onboard_matlab.c ****   /* Outport: '<Root>/CTRL_mode' incorporates:
 929:../custom_mdl/onboard_matlab_ert_rtw/onboard_matlab.c ****    *  BusCreator: '<Root>/BusConversion_InsertedFor_CTRL_mode_at_inport_0'
 930:../custom_mdl/onboard_matlab_ert_rtw/onboard_matlab.c ****    *  Constant: '<S2>/Constant13'
 931:../custom_mdl/onboard_matlab_ert_rtw/onboard_matlab.c ****    *  Constant: '<S2>/Constant2'
 932:../custom_mdl/onboard_matlab_ert_rtw/onboard_matlab.c ****    *  Constant: '<S2>/Constant3'
 933:../custom_mdl/onboard_matlab_ert_rtw/onboard_matlab.c ****    *  Constant: '<S2>/Constant4'
 934:../custom_mdl/onboard_matlab_ert_rtw/onboard_matlab.c ****    */
 935:../custom_mdl/onboard_matlab_ert_rtw/onboard_matlab.c ****   onboard_matlab_Y.CTRL_mode.ctrl_mode = 0U;
 936:../custom_mdl/onboard_matlab_ert_rtw/onboard_matlab.c ****   onboard_matlab_Y.CTRL_mode.ctrl_enabled = 1U;
 937:../custom_mdl/onboard_matlab_ert_rtw/onboard_matlab.c ****   onboard_matlab_Y.CTRL_mode.disable_motor_onoff_by_stick = 0U;
 938:../custom_mdl/onboard_matlab_ert_rtw/onboard_matlab.c ****   onboard_matlab_Y.CTRL_mode.flight_mode = 31;
 939:../custom_mdl/onboard_matlab_ert_rtw/onboard_matlab.c **** 
 940:../custom_mdl/onboard_matlab_ert_rtw/onboard_matlab.c ****   /* Gain: '<S11>/Gain' incorporates:
 941:../custom_mdl/onboard_matlab_ert_rtw/onboard_matlab.c ****    *  DiscreteIntegrator: '<S11>/Discrete-Time Integrator2'
 942:../custom_mdl/onboard_matlab_ert_rtw/onboard_matlab.c ****    */
 943:../custom_mdl/onboard_matlab_ert_rtw/onboard_matlab.c ****   tmp_3 = 1700807049U;
 944:../custom_mdl/onboard_matlab_ert_rtw/onboard_matlab.c ****   tmp_4 = (uint32_T)onboard_matlab_DWork.DiscreteTimeIntegrator2_DSTATE;
 2434              	oc 1 953 0
 2435 1240 B0E99FE5 		add	r3, sp, #216
 2436              		add	r0, sp, #176
 2437 1244 B6C0C8E1 		mov	r1, r4
 2438              		mov	r2, #32
 2439 1248 D0C99FE5 		str	r4, [sp, #0]
 2440              		bl	sMultiWordShl
 2441              		.loc 1 954 0
 2442 124c 04509EE5 		add	r0, sp, #216
 2443              		mov	r1, r4
 2444 1250 B470C8E1 		add	r2, sp, #144
 2445              		mov	r3, #3
 2446 1254 00E0A0E3 		bl	sMultiWord2MultiWord
 2447              		.loc 1 955 0
 2448 1258 0160A0E3 		add	r0, sp, #156
 2449              		add	r1, sp, #144
 2450 125c 6470A0E3 		add	r2, sp, #132
 2451              		mov	r3, #3
 2452              		bl	MultiWordAdd
 2453 1260 E4C08DE5 		.loc 1 956 0
 2454              		mov	r3, r4
 2455 1264 1FC0A0E3 		add	r0, sp, #132
 2456 1268 B0C2C8E1 		mov	r1, #3
 945:../custom_mdl/onboard_matlab_ert_rtw/onboard_matlab.c ****   sMultiWordMul(&tmp_3, 1, &tmp_4, 1, &tmp_b.chunks[0U], 2);
 2457              	MultiWord2sMultiWordSat
 2458 126c 0240A0E3 		.loc 1 962 0
 2459              		ldrsh	r3, [sl, #154]
 2460 1270 1EE0C8E5 		mov	r3, r3, asl #6
 2461              		.loc 1 971 0
 2462 1274 B8E0C8E1 		movs	r3, r3, lsr #16
 2463              		str	r3, [sp, #12]
 2464 1278 BAE0C8E1 	.LVL347:
 2465              		.loc 1 962 0
 2466 127c B2E1C8E1 		ldr	r5, .L414
 2467              		.loc 1 971 0
 2468 1280 B4E1C8E1 		beq	.L410
 2469              	.L369:
 2470 1284 B6E1C8E1 		.loc 1 1053 0
 2471              		ldr	r7, [sp, #12]
 2472 1288 B8E1C8E1 		.loc 1 1006 0
 2473              		ldrsh	lr, [r5, #124]
 2474 128c BAE1C8E1 		.loc 1 1012 0
 2475              		ldrsh	r4, [r5, #126]
 2476 1290 1CE0C8E5 		.loc 1 1024 0
 2477              		ldrsh	r6, [r5, #130]
 2478 1294 B0B0C8E1 		.loc 1 982 0
 2479              		ldrsh	r2, [r5, #118]
 2480 1298 B0E08DE2 		.loc 1 988 0
 2481              		ldrsh	r1, [r5, #116]
 2482 129c B290C8E1 		.loc 1 994 0
 2483              		ldrsh	r0, [r5, #122]
 2484 12a0 BC70C8E1 		.loc 1 1000 0
 2485              		ldrsh	ip, [r5, #120]
 2486 12a4 BE70C8E1 		.loc 1 1053 0
 2487              		mov	r3, r7, asl #16
 2488 12a8 B071C8E1 		.loc 1 1018 0
 2489              		ldrsh	r5, [r5, #128]
 2490 12ac 1D60C8E5 		.loc 1 1053 0
 2491              		mov	r3, r3, asr #16
 2492 12b0 0610A0E1 		.loc 1 1006 0
 2493              		mov	lr, lr, asl #11
 2494 12b4 E4008DE2 		.loc 1 1012 0
 2495              		mov	r4, r4, asl #11
 2496 12b8 E0208DE2 		.loc 1 982 0
 2497              		mov	r2, r2, asl #11
 2498 12bc 0630A0E1 		.loc 1 988 0
 2499              		mov	r1, r1, asl #11
 2500 12c0 00E08DE5 		.loc 1 994 0
 2501              		mov	r0, r0, asl #11
 2502 12c4 E0508DE5 		.loc 1 1000 0
 2503              		mov	ip, ip, asl #11
 2504 12c8 04408DE5 		.loc 1 1018 0
 2505 12cc FEFFFFEB 		mov	r5, r5, asl #11
 946:../custom_mdl/onboard_matlab_ert_rtw/onboard_matlab.c **** 
 947:../custom_mdl/onboard_matlab_ert_rtw/onboard_matlab.c ****   /* Sum: '<S11>/Sum3' incorporates:
 948:../custom_mdl/onboard_matlab_ert_rtw/onboard_matlab.c ****    *  Constant: '<S11>/Amplitude1'
 949:../custom_mdl/onboard_matlab_ert_rtw/onboard_matlab.c ****    */
 950:../custom_mdl/onboard_matlab_ert_rtw/onboard_matlab.c ****   sMultiWordShr(&tmp_b.chunks[0U], 2, 6U, &tmp_2.chunks[0U], 2);
 2506              	0
 2507 12d0 D8308DE2 		mov	lr, lr, lsr #16
 2508 12d4 B0008DE2 		.loc 1 1012 0
 2509 12d8 0410A0E1 		mov	r4, r4, lsr #16
 2510 12dc 0620A0E3 		.loc 1 1053 0
 2511 12e0 00408DE5 		sub	r3, r3, #1
 2512 12e4 FEFFFFEB 		.loc 1 982 0
 951:../custom_mdl/onboard_matlab_ert_rtw/onboard_matlab.c ****   sMultiWord2MultiWord(&tmp_2.chunks[0U], 2, &tmp_a.chunks[0U], 3);
 2513              	, r2, lsr #16
 2514 12e8 D8008DE2 	.LVL348:
 2515 12ec 0410A0E1 		.loc 1 988 0
 2516 12f0 9C208DE2 		mov	r1, r1, lsr #16
 2517 12f4 0330A0E3 	.LVL349:
 2518 12f8 FEFFFFEB 		.loc 1 994 0
 952:../custom_mdl/onboard_matlab_ert_rtw/onboard_matlab.c ****   sLong2MultiWord(uart_up_p_12, &tmp_b.chunks[0U], 2);
 2519              	0, r0, lsr #16
 2520 12fc 20399FE5 	.LVL350:
 2521 1300 B0108DE2 		.loc 1 1000 0
 2522 1304 000093E5 		mov	ip, ip, lsr #16
 2523 1308 0420A0E1 	.LVL351:
 2524 130c FEFFFFEB 		.loc 1 1006 0
 953:../custom_mdl/onboard_matlab_ert_rtw/onboard_matlab.c ****   sMultiWordShl(&tmp_b.chunks[0U], 2, 32U, &tmp_2.chunks[0U], 2);
 2525              	r, [sp, #16]
 2526 1310 D8308DE2 	.LVL352:
 2527 1314 B0008DE2 		.loc 1 1012 0
 2528 1318 0410A0E1 		str	r4, [sp, #20]
 2529 131c 2020A0E3 	.LVL353:
 2530 1320 00408DE5 		.loc 1 1018 0
 2531 1324 FEFFFFEB 		mov	fp, r5, lsr #16
 954:../custom_mdl/onboard_matlab_ert_rtw/onboard_matlab.c ****   sMultiWord2MultiWord(&tmp_2.chunks[0U], 2, &tmp_c.chunks[0U], 3);
 2532              	:
 2533 1328 D8008DE2 		.loc 1 1024 0
 2534 132c 0410A0E1 		mov	r6, r6, lsr #16
 2535 1330 90208DE2 	.LVL355:
 2536 1334 0330A0E3 		.loc 1 1053 0
 2537 1338 FEFFFFEB 		cmp	r3, #4
 955:../custom_mdl/onboard_matlab_ert_rtw/onboard_matlab.c ****   MultiWordAdd(&tmp_a.chunks[0U], &tmp_c.chunks[0U], &tmp_9.chunks[0U], 3);
 2538              		pc, [pc, r3, asl #2]
 2539 133c 9C008DE2 		b	.L371
 2540 1340 90108DE2 		.p2align 2
 2541 1344 84208DE2 	.L377:
 2542 1348 0330A0E3 		.word	.L371
 2543 134c FEFFFFEB 		.word	.L373
 956:../custom_mdl/onboard_matlab_ert_rtw/onboard_matlab.c ****   sMultiWord2sMultiWordSat(&tmp_9.chunks[0U], 3, &rtb_Sum3.chunks[0U], 2);
 2544              		.L374
 2545 1350 0430A0E1 		.word	.L375
 2546 1354 84008DE2 		.word	.L376
 2547 1358 0310A0E3 	.LVL356:
 2548 135c C8208DE2 	.L317:
 2549 1360 FEFFFFEB 		.loc 1 702 0
 957:../custom_mdl/onboard_matlab_ert_rtw/onboard_matlab.c **** 
 958:../custom_mdl/onboard_matlab_ert_rtw/onboard_matlab.c ****   /* DataTypeConversion: '<S3>/Data Type Conversion' incorporates:
 959:../custom_mdl/onboard_matlab_ert_rtw/onboard_matlab.c ****    *  BusSelector: '<S7>/Bus Selector'
 960:../custom_mdl/onboard_matlab_ert_rtw/onboard_matlab.c ****    *  Inport: '<Root>/UART_Data_In'
 961:../custom_mdl/onboard_matlab_ert_rtw/onboard_matlab.c ****    */
 962:../custom_mdl/onboard_matlab_ert_rtw/onboard_matlab.c ****   rtb_DataTypeConversion = (int16_T)(onboard_matlab_U.UART_Data_In.uart_ctrl_12 >>
 2550              	1, .L414+4
 2551 1364 FA39DAE1 		mov	r3, #0
 2552 1368 0333A0E1 		str	r3, [r1, #4]
 963:../custom_mdl/onboard_matlab_ert_rtw/onboard_matlab.c ****     10);
 964:../custom_mdl/onboard_matlab_ert_rtw/onboard_matlab.c **** 
 965:../custom_mdl/onboard_matlab_ert_rtw/onboard_matlab.c ****   /* Switch: '<S3>/Switch' incorporates:
 966:../custom_mdl/onboard_matlab_ert_rtw/onboard_matlab.c ****    *  Constant: '<S14>/Constant4'
 967:../custom_mdl/onboard_matlab_ert_rtw/onboard_matlab.c ****    *  MultiPortSwitch: '<S14>/Index Vector'
 968:../custom_mdl/onboard_matlab_ert_rtw/onboard_matlab.c ****    *  Product: '<S14>/Divide'
 969:../custom_mdl/onboard_matlab_ert_rtw/onboard_matlab.c ****    *  UnitDelay: '<S14>/Unit Delay'
 970:../custom_mdl/onboard_matlab_ert_rtw/onboard_matlab.c ****    */
 971:../custom_mdl/onboard_matlab_ert_rtw/onboard_matlab.c ****   if (rtb_DataTypeConversion == 0) {
 2553              	.L319
 2554 136c 2338B0E1 	.LVL357:
 2555 1370 0C308DE5 	.L371:
 2556              		.loc 1 1254 0
 2557              		ldr	r3, .L414+52
 2558 1374 78589FE5 		.loc 1 1255 0
 2559              		mov	r2, r2, asl #16
 2560 1378 BD00000A 	.LVL358:
 2561              		mov	r1, r1, asl #16
 972:../custom_mdl/onboard_matlab_ert_rtw/onboard_matlab.c ****     rtb_DataTypeConversion = onboard_matlab_ConstP.Constant4_Value[(int16_T)
 973:../custom_mdl/onboard_matlab_ert_rtw/onboard_matlab.c ****       div_nzp_s32_ceiling(onboard_matlab_DWork.UnitDelay_DSTATE, 20) - 1];
 974:../custom_mdl/onboard_matlab_ert_rtw/onboard_matlab.c ****   }
 975:../custom_mdl/onboard_matlab_ert_rtw/onboard_matlab.c **** 
 976:../custom_mdl/onboard_matlab_ert_rtw/onboard_matlab.c ****   /* End of Switch: '<S3>/Switch' */
 977:../custom_mdl/onboard_matlab_ert_rtw/onboard_matlab.c **** 
 978:../custom_mdl/onboard_matlab_ert_rtw/onboard_matlab.c ****   /* Gain: '<S3>/Gain10' incorporates:
 979:../custom_mdl/onboard_matlab_ert_rtw/onboard_matlab.c ****    *  BusSelector: '<S4>/Bus Selector1'
 980:../custom_mdl/onboard_matlab_ert_rtw/onboard_matlab.c ****    *  Inport: '<Root>/RC_Data_In'
 981:../custom_mdl/onboard_matlab_ert_rtw/onboard_matlab.c ****    */
 982:../custom_mdl/onboard_matlab_ert_rtw/onboard_matlab.c ****   rtb_Gain10 = (int16_T)(onboard_matlab_U.RC_Data_In.CMD_2 >> 5);
 983:../custom_mdl/onboard_matlab_ert_rtw/onboard_matlab.c **** 
 984:../custom_mdl/onboard_matlab_ert_rtw/onboard_matlab.c ****   /* Gain: '<S3>/Gain11' incorporates:
 985:../custom_mdl/onboard_matlab_ert_rtw/onboard_matlab.c ****    *  BusSelector: '<S4>/Bus Selector1'
 986:../custom_mdl/onboard_matlab_ert_rtw/onboard_matlab.c ****    *  Inport: '<Root>/RC_Data_In'
 987:../custom_mdl/onboard_matlab_ert_rtw/onboard_matlab.c ****    */
 988:../custom_mdl/onboard_matlab_ert_rtw/onboard_matlab.c ****   rtb_Saturation4_idx = (int16_T)(onboard_matlab_U.RC_Data_In.CMD_1 >> 5);
 989:../custom_mdl/onboard_matlab_ert_rtw/onboard_matlab.c **** 
 990:../custom_mdl/onboard_matlab_ert_rtw/onboard_matlab.c ****   /* Gain: '<S3>/Gain12' incorporates:
 991:../custom_mdl/onboard_matlab_ert_rtw/onboard_matlab.c ****    *  BusSelector: '<S4>/Bus Selector1'
 992:../custom_mdl/onboard_matlab_ert_rtw/onboard_matlab.c ****    *  Inport: '<Root>/RC_Data_In'
 993:../custom_mdl/onboard_matlab_ert_rtw/onboard_matlab.c ****    */
 994:../custom_mdl/onboard_matlab_ert_rtw/onboard_matlab.c ****   rtb_Saturation4_idx_0 = (int16_T)(onboard_matlab_U.RC_Data_In.CMD_4 >> 5);
 995:../custom_mdl/onboard_matlab_ert_rtw/onboard_matlab.c **** 
 996:../custom_mdl/onboard_matlab_ert_rtw/onboard_matlab.c ****   /* Gain: '<S3>/Gain13' incorporates:
 997:../custom_mdl/onboard_matlab_ert_rtw/onboard_matlab.c ****    *  BusSelector: '<S4>/Bus Selector1'
 998:../custom_mdl/onboard_matlab_ert_rtw/onboard_matlab.c ****    *  Inport: '<Root>/RC_Data_In'
 999:../custom_mdl/onboard_matlab_ert_rtw/onboard_matlab.c ****    */
1000:../custom_mdl/onboard_matlab_ert_rtw/onboard_matlab.c ****   rtb_Saturation4_idx_1 = (int16_T)(onboard_matlab_U.RC_Data_In.CMD_3 >> 5);
1001:../custom_mdl/onboard_matlab_ert_rtw/onboard_matlab.c **** 
1002:../custom_mdl/onboard_matlab_ert_rtw/onboard_matlab.c ****   /* Gain: '<S3>/Gain14' incorporates:
1003:../custom_mdl/onboard_matlab_ert_rtw/onboard_matlab.c ****    *  BusSelector: '<S4>/Bus Selector1'
1004:../custom_mdl/onboard_matlab_ert_rtw/onboard_matlab.c ****    *  Inport: '<Root>/RC_Data_In'
1005:../custom_mdl/onboard_matlab_ert_rtw/onboard_matlab.c ****    */
1006:../custom_mdl/onboard_matlab_ert_rtw/onboard_matlab.c ****   rtb_Gain14 = (int16_T)(onboard_matlab_U.RC_Data_In.CMD_5 >> 5);
1007:../custom_mdl/onboard_matlab_ert_rtw/onboard_matlab.c **** 
1008:../custom_mdl/onboard_matlab_ert_rtw/onboard_matlab.c ****   /* Gain: '<S3>/Gain15' incorporates:
1009:../custom_mdl/onboard_matlab_ert_rtw/onboard_matlab.c ****    *  BusSelector: '<S4>/Bus Selector1'
1010:../custom_mdl/onboard_matlab_ert_rtw/onboard_matlab.c ****    *  Inport: '<Root>/RC_Data_In'
1011:../custom_mdl/onboard_matlab_ert_rtw/onboard_matlab.c ****    */
1012:../custom_mdl/onboard_matlab_ert_rtw/onboard_matlab.c ****   rtb_Gain15 = (int16_T)(onboard_matlab_U.RC_Data_In.CMD_6 >> 5);
1013:../custom_mdl/onboard_matlab_ert_rtw/onboard_matlab.c **** 
1014:../custom_mdl/onboard_matlab_ert_rtw/onboard_matlab.c ****   /* Gain: '<S3>/Gain16' incorporates:
1015:../custom_mdl/onboard_matlab_ert_rtw/onboard_matlab.c ****    *  BusSelector: '<S4>/Bus Selector1'
1016:../custom_mdl/onboard_matlab_ert_rtw/onboard_matlab.c ****    *  Inport: '<Root>/RC_Data_In'
1017:../custom_mdl/onboard_matlab_ert_rtw/onboard_matlab.c ****    */
1018:../custom_mdl/onboard_matlab_ert_rtw/onboard_matlab.c ****   rtb_Gain16 = (int16_T)(onboard_matlab_U.RC_Data_In.CMD_7 >> 5);
1019:../custom_mdl/onboard_matlab_ert_rtw/onboard_matlab.c **** 
1020:../custom_mdl/onboard_matlab_ert_rtw/onboard_matlab.c ****   /* Gain: '<S3>/Gain17' incorporates:
1021:../custom_mdl/onboard_matlab_ert_rtw/onboard_matlab.c ****    *  BusSelector: '<S4>/Bus Selector1'
1022:../custom_mdl/onboard_matlab_ert_rtw/onboard_matlab.c ****    *  Inport: '<Root>/RC_Data_In'
1023:../custom_mdl/onboard_matlab_ert_rtw/onboard_matlab.c ****    */
1024:../custom_mdl/onboard_matlab_ert_rtw/onboard_matlab.c ****   rtb_Gain17 = (int16_T)(onboard_matlab_U.RC_Data_In.CMD_8 >> 5);
1025:../custom_mdl/onboard_matlab_ert_rtw/onboard_matlab.c **** 
1026:../custom_mdl/onboard_matlab_ert_rtw/onboard_matlab.c ****   /* MultiPortSwitch: '<S3>/Multiport Switch' incorporates:
1027:../custom_mdl/onboard_matlab_ert_rtw/onboard_matlab.c ****    *  BusSelector: '<S7>/Bus Selector'
1028:../custom_mdl/onboard_matlab_ert_rtw/onboard_matlab.c ****    *  DataTypeConversion: '<S17>/Extract Desired Bits'
1029:../custom_mdl/onboard_matlab_ert_rtw/onboard_matlab.c ****    *  Gain: '<S3>/Gain20'
1030:../custom_mdl/onboard_matlab_ert_rtw/onboard_matlab.c ****    *  Gain: '<S3>/Gain21'
1031:../custom_mdl/onboard_matlab_ert_rtw/onboard_matlab.c ****    *  Gain: '<S3>/Gain22'
1032:../custom_mdl/onboard_matlab_ert_rtw/onboard_matlab.c ****    *  Gain: '<S3>/Gain23'
1033:../custom_mdl/onboard_matlab_ert_rtw/onboard_matlab.c ****    *  Gain: '<S3>/Gain24'
1034:../custom_mdl/onboard_matlab_ert_rtw/onboard_matlab.c ****    *  Gain: '<S3>/Gain25'
1035:../custom_mdl/onboard_matlab_ert_rtw/onboard_matlab.c ****    *  Gain: '<S3>/Gain26'
1036:../custom_mdl/onboard_matlab_ert_rtw/onboard_matlab.c ****    *  Gain: '<S3>/Gain29'
1037:../custom_mdl/onboard_matlab_ert_rtw/onboard_matlab.c ****    *  Gain: '<S3>/Gain30'
1038:../custom_mdl/onboard_matlab_ert_rtw/onboard_matlab.c ****    *  Gain: '<S3>/Gain31'
1039:../custom_mdl/onboard_matlab_ert_rtw/onboard_matlab.c ****    *  Gain: '<S3>/Gain32'
1040:../custom_mdl/onboard_matlab_ert_rtw/onboard_matlab.c ****    *  Gain: '<S3>/Gain33'
1041:../custom_mdl/onboard_matlab_ert_rtw/onboard_matlab.c ****    *  Gain: '<S3>/Gain34'
1042:../custom_mdl/onboard_matlab_ert_rtw/onboard_matlab.c ****    *  Gain: '<S3>/Gain35'
1043:../custom_mdl/onboard_matlab_ert_rtw/onboard_matlab.c ****    *  Gain: '<S3>/Gain36'
1044:../custom_mdl/onboard_matlab_ert_rtw/onboard_matlab.c ****    *  Gain: '<S3>/Gain38'
1045:../custom_mdl/onboard_matlab_ert_rtw/onboard_matlab.c ****    *  Gain: '<S3>/Gain39'
1046:../custom_mdl/onboard_matlab_ert_rtw/onboard_matlab.c ****    *  Gain: '<S3>/Gain40'
1047:../custom_mdl/onboard_matlab_ert_rtw/onboard_matlab.c ****    *  Gain: '<S3>/Gain41'
1048:../custom_mdl/onboard_matlab_ert_rtw/onboard_matlab.c ****    *  Gain: '<S3>/Gain42'
1049:../custom_mdl/onboard_matlab_ert_rtw/onboard_matlab.c ****    *  Gain: '<S3>/Gain48'
1050:../custom_mdl/onboard_matlab_ert_rtw/onboard_matlab.c ****    *  Gain: '<S3>/Gain9'
1051:../custom_mdl/onboard_matlab_ert_rtw/onboard_matlab.c ****    *  Inport: '<Root>/UART_Data_In'
1052:../custom_mdl/onboard_matlab_ert_rtw/onboard_matlab.c ****    */
1053:../custom_mdl/onboard_matlab_ert_rtw/onboard_matlab.c ****   switch (rtb_DataTypeConversion) {
 2562              		mov	r0, r0, asl #16
 2563 137c 0C709DE5 	.LVL360:
 2564              		ldrh	lr, [r3, #2]
 2565 1380 FCE7D5E1 		mov	r2, r2, lsr #16
 2566              		mov	r1, r1, lsr #16
 2567 1384 FE47D5E1 		mov	r0, r0, lsr #16
 2568              		mov	ip, ip, asl #16
 2569 1388 F268D5E1 	.LVL361:
 2570              		str	lr, [sp, #40]
 2571 138c F627D5E1 	.LVL362:
 2572              		.loc 1 1254 0
 2573 1390 F417D5E1 		ldrh	r7, [r3, #0]
 2574              	.LVL363:
 2575 1394 FA07D5E1 		.loc 1 1255 0
 2576              		str	r2, [sp, #24]
 2577 1398 F8C7D5E1 	.LVL364:
 2578              		str	r1, [sp, #28]
 2579 139c 0738A0E1 	.LVL365:
 2580              		str	r0, [sp, #32]
 2581 13a0 F058D5E1 	.LVL366:
 2582              		mov	r9, ip, lsr #16
 2583 13a4 4338A0E1 	.LVL367:
 2584              	.L378:
 2585 13a8 8EE5A0E1 		.loc 1 1284 0
 2586              		ldr	r1, [sl, #0]
 2587 13ac 8445A0E1 		ldr	r0, .L414+56
 2588              	.LVL368:
 2589 13b0 8225A0E1 		bl	mul_s32_s32_s32_sr30
 2590              		mov	r3, r0, asl #16
 2591 13b4 8115A0E1 		mov	r3, r3, asr #21
 2592              		.loc 1 1287 0
 2593 13b8 8005A0E1 		ldr	r1, [sl, #4]
 2594              		.loc 1 1284 0
 2595 13bc 8CC5A0E1 		strh	r3, [r8, #36]	@ movhi
 2596              		.loc 1 1287 0
 2597 13c0 8555A0E1 		ldr	r0, .L414+56
 2598              		bl	mul_s32_s32_s32_sr30
 2599 13c4 8665A0E1 		mov	r3, r0, asl #16
 2600              		mov	r3, r3, asr #21
 2601 13c8 2EE8A0E1 		.loc 1 1290 0
 2602              		ldr	r1, [sl, #8]
 2603 13cc 2448A0E1 		.loc 1 1287 0
 2604              		strh	r3, [r8, #38]	@ movhi
 2605 13d0 013043E2 		.loc 1 1290 0
 2606              		ldr	r0, .L414+56
 2607 13d4 2228A0E1 		bl	mul_s32_s32_s32_sr32
 2608              		mov	r3, r0, asl #16
 2609              		mov	r3, r3, asr #19
 2610 13d8 2118A0E1 		.loc 1 1292 0
 2611              		ldr	r1, [sl, #12]
 2612              		.loc 1 1290 0
 2613 13dc 2008A0E1 		strh	r3, [r8, #40]	@ movhi
 2614              		.loc 1 1292 0
 2615              		ldr	r0, .L414+60
 2616 13e0 2CC8A0E1 		bl	mul_s32_s32_s32_sr30
 2617              		mov	r3, r0, asl #16
 2618              		mov	r3, r3, asr #19
 2619 13e4 10E08DE5 		.loc 1 1295 0
 2620              		ldr	r1, [sl, #16]
 2621              		.loc 1 1292 0
 2622 13e8 14408DE5 		strh	r3, [r8, #42]	@ movhi
 2623              		.loc 1 1295 0
 2624              		ldr	r0, .L414+60
 2625 13ec 25B8A0E1 		bl	mul_s32_s32_s32_sr30
 2626              		mov	r3, r0, asl #16
 2627              		mov	r3, r3, asr #19
 2628 13f0 2668A0E1 		.loc 1 1298 0
 2629              		ldr	r1, [sl, #20]
 2630              		.loc 1 1295 0
 2631 13f4 040053E3 		strh	r3, [r8, #44]	@ movhi
 2632 13f8 03F19F97 		.loc 1 1298 0
 2633 13fc 080000EA 		ldr	r0, .L414+60
 2634              		bl	mul_s32_s32_s32_sr30
 2635              		.loc 1 1301 0
 2636 1400 24140000 		ldrsh	r3, [sl, #24]
 2637 1404 601A0000 		.loc 1 1303 0
 2638 1408 20190000 		ldrsh	r2, [sl, #26]
 2639 140c 58180000 		.loc 1 1305 0
 2640 1410 10180000 		ldrsh	r4, [sl, #28]
 2641              		.loc 1 1301 0
 2642              		add	r1, r3, r3, asl #6
 2643              		.loc 1 1303 0
 2644 1414 DC179FE5 		add	ip, r2, r2, asl #6
 2645 1418 0030A0E3 		.loc 1 1305 0
 2646 141c 043081E5 		add	lr, r4, r4, asl #6
 2647 1420 ACFEFFEA 		.loc 1 1301 0
 2648              		add	r1, r3, r1, asl #1
 2649              		.loc 1 1303 0
1054:../custom_mdl/onboard_matlab_ert_rtw/onboard_matlab.c ****    case 1:
1055:../custom_mdl/onboard_matlab_ert_rtw/onboard_matlab.c ****     rtb_MultiportSwitch_idx = rtb_Gain10;
1056:../custom_mdl/onboard_matlab_ert_rtw/onboard_matlab.c ****     rtb_MultiportSwitch_idx_0 = rtb_Saturation4_idx;
1057:../custom_mdl/onboard_matlab_ert_rtw/onboard_matlab.c ****     rtb_MultiportSwitch_idx_1 = rtb_Saturation4_idx_0;
1058:../custom_mdl/onboard_matlab_ert_rtw/onboard_matlab.c ****     rtb_MultiportSwitch_idx_2 = rtb_Saturation4_idx_1;
1059:../custom_mdl/onboard_matlab_ert_rtw/onboard_matlab.c ****     rtb_Saturation4_idx = onboard_matlab_ConstB.Gain18;
1060:../custom_mdl/onboard_matlab_ert_rtw/onboard_matlab.c ****     rtb_Saturation4_idx_0 = onboard_matlab_ConstB.Gain19;
1061:../custom_mdl/onboard_matlab_ert_rtw/onboard_matlab.c ****     break;
1062:../custom_mdl/onboard_matlab_ert_rtw/onboard_matlab.c **** 
1063:../custom_mdl/onboard_matlab_ert_rtw/onboard_matlab.c ****    case 2:
1064:../custom_mdl/onboard_matlab_ert_rtw/onboard_matlab.c ****     /* Gain: '<S8>/Gain' incorporates:
1065:../custom_mdl/onboard_matlab_ert_rtw/onboard_matlab.c ****      *  Inport: '<Root>/MOTOR_Data_In'
1066:../custom_mdl/onboard_matlab_ert_rtw/onboard_matlab.c ****      */
1067:../custom_mdl/onboard_matlab_ert_rtw/onboard_matlab.c ****     rtb_Gain10 = (int16_T)(82U * onboard_matlab_U.MOTOR_Data_In.m1);
1068:../custom_mdl/onboard_matlab_ert_rtw/onboard_matlab.c **** 
1069:../custom_mdl/onboard_matlab_ert_rtw/onboard_matlab.c ****     /* Gain: '<S8>/Gain2' incorporates:
1070:../custom_mdl/onboard_matlab_ert_rtw/onboard_matlab.c ****      *  Inport: '<Root>/MOTOR_Data_In'
1071:../custom_mdl/onboard_matlab_ert_rtw/onboard_matlab.c ****      */
1072:../custom_mdl/onboard_matlab_ert_rtw/onboard_matlab.c ****     rtb_Saturation4_idx = (int16_T)(82U * onboard_matlab_U.MOTOR_Data_In.m2);
1073:../custom_mdl/onboard_matlab_ert_rtw/onboard_matlab.c **** 
1074:../custom_mdl/onboard_matlab_ert_rtw/onboard_matlab.c ****     /* Gain: '<S8>/Gain1' incorporates:
1075:../custom_mdl/onboard_matlab_ert_rtw/onboard_matlab.c ****      *  Inport: '<Root>/MOTOR_Data_In'
1076:../custom_mdl/onboard_matlab_ert_rtw/onboard_matlab.c ****      */
1077:../custom_mdl/onboard_matlab_ert_rtw/onboard_matlab.c ****     rtb_Saturation4_idx_0 = (int16_T)(82U * onboard_matlab_U.MOTOR_Data_In.m3);
1078:../custom_mdl/onboard_matlab_ert_rtw/onboard_matlab.c **** 
1079:../custom_mdl/onboard_matlab_ert_rtw/onboard_matlab.c ****     /* Gain: '<S8>/Gain3' incorporates:
1080:../custom_mdl/onboard_matlab_ert_rtw/onboard_matlab.c ****      *  Inport: '<Root>/MOTOR_Data_In'
1081:../custom_mdl/onboard_matlab_ert_rtw/onboard_matlab.c ****      */
1082:../custom_mdl/onboard_matlab_ert_rtw/onboard_matlab.c ****     rtb_Saturation4_idx_1 = (int16_T)(82U * onboard_matlab_U.MOTOR_Data_In.m4);
1083:../custom_mdl/onboard_matlab_ert_rtw/onboard_matlab.c ****     rtb_MultiportSwitch_idx = (int16_T)(rtb_Gain10 >> 5);
1084:../custom_mdl/onboard_matlab_ert_rtw/onboard_matlab.c ****     rtb_MultiportSwitch_idx_0 = (int16_T)(rtb_Saturation4_idx >> 5);
1085:../custom_mdl/onboard_matlab_ert_rtw/onboard_matlab.c ****     rtb_MultiportSwitch_idx_1 = (int16_T)(rtb_Saturation4_idx_0 >> 5);
1086:../custom_mdl/onboard_matlab_ert_rtw/onboard_matlab.c ****     rtb_MultiportSwitch_idx_2 = (int16_T)(rtb_Saturation4_idx_1 >> 5);
1087:../custom_mdl/onboard_matlab_ert_rtw/onboard_matlab.c ****     rtb_Gain14 = (int16_T)(rtb_Gain10 >> 5);
1088:../custom_mdl/onboard_matlab_ert_rtw/onboard_matlab.c ****     rtb_Gain15 = (int16_T)(rtb_Saturation4_idx >> 5);
1089:../custom_mdl/onboard_matlab_ert_rtw/onboard_matlab.c ****     rtb_Gain16 = (int16_T)(rtb_Saturation4_idx_0 >> 5);
1090:../custom_mdl/onboard_matlab_ert_rtw/onboard_matlab.c ****     rtb_Gain17 = (int16_T)(rtb_Saturation4_idx_1 >> 5);
1091:../custom_mdl/onboard_matlab_ert_rtw/onboard_matlab.c ****     rtb_Saturation4_idx = onboard_matlab_ConstB.Gain27;
1092:../custom_mdl/onboard_matlab_ert_rtw/onboard_matlab.c ****     rtb_Saturation4_idx_0 = onboard_matlab_ConstB.Gain28;
1093:../custom_mdl/onboard_matlab_ert_rtw/onboard_matlab.c ****     break;
1094:../custom_mdl/onboard_matlab_ert_rtw/onboard_matlab.c **** 
1095:../custom_mdl/onboard_matlab_ert_rtw/onboard_matlab.c ****    case 3:
1096:../custom_mdl/onboard_matlab_ert_rtw/onboard_matlab.c ****     /* Gain: '<S3>/Gain38' incorporates:
1097:../custom_mdl/onboard_matlab_ert_rtw/onboard_matlab.c ****      *  Gain: '<S5>/Gain1'
1098:../custom_mdl/onboard_matlab_ert_rtw/onboard_matlab.c ****      *  Inport: '<Root>/GPS_Data_In'
1099:../custom_mdl/onboard_matlab_ert_rtw/onboard_matlab.c ****      */
1100:../custom_mdl/onboard_matlab_ert_rtw/onboard_matlab.c ****     rtb_IndexVector_idx = mul_s32_s32_s32_sr31_sat_zero(1801439851,
1101:../custom_mdl/onboard_matlab_ert_rtw/onboard_matlab.c ****       onboard_matlab_U.GPS_Data_In.gps_longitude) >> 14;
1102:../custom_mdl/onboard_matlab_ert_rtw/onboard_matlab.c ****     if (rtb_IndexVector_idx > 32767) {
1103:../custom_mdl/onboard_matlab_ert_rtw/onboard_matlab.c ****       rtb_IndexVector_idx = 32767;
1104:../custom_mdl/onboard_matlab_ert_rtw/onboard_matlab.c ****     } else {
1105:../custom_mdl/onboard_matlab_ert_rtw/onboard_matlab.c ****       if (rtb_IndexVector_idx < -32768) {
1106:../custom_mdl/onboard_matlab_ert_rtw/onboard_matlab.c ****         rtb_IndexVector_idx = -32768;
1107:../custom_mdl/onboard_matlab_ert_rtw/onboard_matlab.c ****       }
1108:../custom_mdl/onboard_matlab_ert_rtw/onboard_matlab.c ****     }
1109:../custom_mdl/onboard_matlab_ert_rtw/onboard_matlab.c **** 
1110:../custom_mdl/onboard_matlab_ert_rtw/onboard_matlab.c ****     rtb_MultiportSwitch_idx = (int16_T)rtb_IndexVector_idx;
1111:../custom_mdl/onboard_matlab_ert_rtw/onboard_matlab.c **** 
1112:../custom_mdl/onboard_matlab_ert_rtw/onboard_matlab.c ****     /* Gain: '<S3>/Gain29' incorporates:
1113:../custom_mdl/onboard_matlab_ert_rtw/onboard_matlab.c ****      *  Gain: '<S3>/Gain38'
1114:../custom_mdl/onboard_matlab_ert_rtw/onboard_matlab.c ****      *  Gain: '<S5>/Gain'
1115:../custom_mdl/onboard_matlab_ert_rtw/onboard_matlab.c ****      *  Inport: '<Root>/GPS_Data_In'
1116:../custom_mdl/onboard_matlab_ert_rtw/onboard_matlab.c ****      */
1117:../custom_mdl/onboard_matlab_ert_rtw/onboard_matlab.c ****     rtb_IndexVector_idx = mul_s32_s32_s32_sr30_sat_zero(1801439851,
1118:../custom_mdl/onboard_matlab_ert_rtw/onboard_matlab.c ****       onboard_matlab_U.GPS_Data_In.gps_latitude) >> 15;
1119:../custom_mdl/onboard_matlab_ert_rtw/onboard_matlab.c ****     if (rtb_IndexVector_idx > 32767) {
1120:../custom_mdl/onboard_matlab_ert_rtw/onboard_matlab.c ****       rtb_IndexVector_idx = 32767;
1121:../custom_mdl/onboard_matlab_ert_rtw/onboard_matlab.c ****     } else {
1122:../custom_mdl/onboard_matlab_ert_rtw/onboard_matlab.c ****       if (rtb_IndexVector_idx < -32768) {
1123:../custom_mdl/onboard_matlab_ert_rtw/onboard_matlab.c ****         rtb_IndexVector_idx = -32768;
1124:../custom_mdl/onboard_matlab_ert_rtw/onboard_matlab.c ****       }
1125:../custom_mdl/onboard_matlab_ert_rtw/onboard_matlab.c ****     }
1126:../custom_mdl/onboard_matlab_ert_rtw/onboard_matlab.c **** 
1127:../custom_mdl/onboard_matlab_ert_rtw/onboard_matlab.c ****     rtb_MultiportSwitch_idx_0 = (int16_T)rtb_IndexVector_idx;
1128:../custom_mdl/onboard_matlab_ert_rtw/onboard_matlab.c **** 
1129:../custom_mdl/onboard_matlab_ert_rtw/onboard_matlab.c ****     /* Gain: '<S3>/Gain30' incorporates:
1130:../custom_mdl/onboard_matlab_ert_rtw/onboard_matlab.c ****      *  Gain: '<S3>/Gain29'
1131:../custom_mdl/onboard_matlab_ert_rtw/onboard_matlab.c ****      *  Gain: '<S5>/Gain3'
1132:../custom_mdl/onboard_matlab_ert_rtw/onboard_matlab.c ****      *  Inport: '<Root>/GPS_Data_In'
1133:../custom_mdl/onboard_matlab_ert_rtw/onboard_matlab.c ****      */
1134:../custom_mdl/onboard_matlab_ert_rtw/onboard_matlab.c ****     rtb_IndexVector_idx = mul_s32_s32_s32_sr28_sat_zero(274877907,
1135:../custom_mdl/onboard_matlab_ert_rtw/onboard_matlab.c ****       onboard_matlab_U.GPS_Data_In.gps_speed_EW) >> 1;
1136:../custom_mdl/onboard_matlab_ert_rtw/onboard_matlab.c ****     if (rtb_IndexVector_idx > 32767) {
1137:../custom_mdl/onboard_matlab_ert_rtw/onboard_matlab.c ****       rtb_IndexVector_idx = 32767;
1138:../custom_mdl/onboard_matlab_ert_rtw/onboard_matlab.c ****     } else {
1139:../custom_mdl/onboard_matlab_ert_rtw/onboard_matlab.c ****       if (rtb_IndexVector_idx < -32768) {
1140:../custom_mdl/onboard_matlab_ert_rtw/onboard_matlab.c ****         rtb_IndexVector_idx = -32768;
1141:../custom_mdl/onboard_matlab_ert_rtw/onboard_matlab.c ****       }
1142:../custom_mdl/onboard_matlab_ert_rtw/onboard_matlab.c ****     }
1143:../custom_mdl/onboard_matlab_ert_rtw/onboard_matlab.c **** 
1144:../custom_mdl/onboard_matlab_ert_rtw/onboard_matlab.c ****     rtb_MultiportSwitch_idx_1 = (int16_T)rtb_IndexVector_idx;
1145:../custom_mdl/onboard_matlab_ert_rtw/onboard_matlab.c **** 
1146:../custom_mdl/onboard_matlab_ert_rtw/onboard_matlab.c ****     /* Gain: '<S3>/Gain31' incorporates:
1147:../custom_mdl/onboard_matlab_ert_rtw/onboard_matlab.c ****      *  Gain: '<S3>/Gain30'
1148:../custom_mdl/onboard_matlab_ert_rtw/onboard_matlab.c ****      *  Gain: '<S5>/Gain4'
1149:../custom_mdl/onboard_matlab_ert_rtw/onboard_matlab.c ****      *  Inport: '<Root>/GPS_Data_In'
1150:../custom_mdl/onboard_matlab_ert_rtw/onboard_matlab.c ****      */
1151:../custom_mdl/onboard_matlab_ert_rtw/onboard_matlab.c ****     rtb_IndexVector_idx = mul_s32_s32_s32_sr28_sat_zero(274877907,
1152:../custom_mdl/onboard_matlab_ert_rtw/onboard_matlab.c ****       onboard_matlab_U.GPS_Data_In.gps_speed_NS) >> 1;
1153:../custom_mdl/onboard_matlab_ert_rtw/onboard_matlab.c ****     if (rtb_IndexVector_idx > 32767) {
1154:../custom_mdl/onboard_matlab_ert_rtw/onboard_matlab.c ****       rtb_IndexVector_idx = 32767;
1155:../custom_mdl/onboard_matlab_ert_rtw/onboard_matlab.c ****     } else {
1156:../custom_mdl/onboard_matlab_ert_rtw/onboard_matlab.c ****       if (rtb_IndexVector_idx < -32768) {
1157:../custom_mdl/onboard_matlab_ert_rtw/onboard_matlab.c ****         rtb_IndexVector_idx = -32768;
1158:../custom_mdl/onboard_matlab_ert_rtw/onboard_matlab.c ****       }
1159:../custom_mdl/onboard_matlab_ert_rtw/onboard_matlab.c ****     }
1160:../custom_mdl/onboard_matlab_ert_rtw/onboard_matlab.c **** 
1161:../custom_mdl/onboard_matlab_ert_rtw/onboard_matlab.c ****     rtb_MultiportSwitch_idx_2 = (int16_T)rtb_IndexVector_idx;
1162:../custom_mdl/onboard_matlab_ert_rtw/onboard_matlab.c **** 
1163:../custom_mdl/onboard_matlab_ert_rtw/onboard_matlab.c ****     /* DataTypeConversion: '<S17>/Extract Desired Bits' incorporates:
1164:../custom_mdl/onboard_matlab_ert_rtw/onboard_matlab.c ****      *  Gain: '<S3>/Gain31'
1165:../custom_mdl/onboard_matlab_ert_rtw/onboard_matlab.c ****      *  Inport: '<Root>/GPS_Data_In'
1166:../custom_mdl/onboard_matlab_ert_rtw/onboard_matlab.c ****      */
1167:../custom_mdl/onboard_matlab_ert_rtw/onboard_matlab.c ****     tmp_0 = (int8_T)onboard_matlab_U.GPS_Data_In.gps_status;
1168:../custom_mdl/onboard_matlab_ert_rtw/onboard_matlab.c ****     rtb_Gain14 = (int16_T)((int16_T)((int8_T)(tmp_0 & 2) != 0 ? (int32_T)(int8_T)
1169:../custom_mdl/onboard_matlab_ert_rtw/onboard_matlab.c ****                             (tmp_0 | -2) : (int32_T)(int8_T)(tmp_0 & 1)) << 9);
1170:../custom_mdl/onboard_matlab_ert_rtw/onboard_matlab.c ****     rtb_Gain15 = (int16_T)(onboard_matlab_U.UART_Data_In.uart_ctrl_06 >> 1);
1171:../custom_mdl/onboard_matlab_ert_rtw/onboard_matlab.c ****     rtb_Gain16 = (int16_T)(onboard_matlab_U.UART_Data_In.uart_ctrl_07 >> 1);
1172:../custom_mdl/onboard_matlab_ert_rtw/onboard_matlab.c ****     rtb_Gain17 = (int16_T)(onboard_matlab_U.UART_Data_In.uart_ctrl_08 >> 1);
1173:../custom_mdl/onboard_matlab_ert_rtw/onboard_matlab.c ****     rtb_Saturation4_idx = (int16_T)(onboard_matlab_U.UART_Data_In.uart_ctrl_09 >>
1174:../custom_mdl/onboard_matlab_ert_rtw/onboard_matlab.c ****       1);
1175:../custom_mdl/onboard_matlab_ert_rtw/onboard_matlab.c ****     rtb_Saturation4_idx_0 = onboard_matlab_ConstB.Gain37;
1176:../custom_mdl/onboard_matlab_ert_rtw/onboard_matlab.c ****     break;
1177:../custom_mdl/onboard_matlab_ert_rtw/onboard_matlab.c **** 
1178:../custom_mdl/onboard_matlab_ert_rtw/onboard_matlab.c ****    case 4:
1179:../custom_mdl/onboard_matlab_ert_rtw/onboard_matlab.c ****     /* Gain: '<S3>/Gain48' incorporates:
1180:../custom_mdl/onboard_matlab_ert_rtw/onboard_matlab.c ****      *  Constant: '<S3>/Constant10'
1181:../custom_mdl/onboard_matlab_ert_rtw/onboard_matlab.c ****      */
1182:../custom_mdl/onboard_matlab_ert_rtw/onboard_matlab.c ****     rtb_IndexVector_idx = uart_up_p_10 >> 7;
1183:../custom_mdl/onboard_matlab_ert_rtw/onboard_matlab.c ****     if (rtb_IndexVector_idx > 32767) {
1184:../custom_mdl/onboard_matlab_ert_rtw/onboard_matlab.c ****       rtb_IndexVector_idx = 32767;
1185:../custom_mdl/onboard_matlab_ert_rtw/onboard_matlab.c ****     } else {
1186:../custom_mdl/onboard_matlab_ert_rtw/onboard_matlab.c ****       if (rtb_IndexVector_idx < -32768) {
1187:../custom_mdl/onboard_matlab_ert_rtw/onboard_matlab.c ****         rtb_IndexVector_idx = -32768;
1188:../custom_mdl/onboard_matlab_ert_rtw/onboard_matlab.c ****       }
1189:../custom_mdl/onboard_matlab_ert_rtw/onboard_matlab.c ****     }
1190:../custom_mdl/onboard_matlab_ert_rtw/onboard_matlab.c **** 
1191:../custom_mdl/onboard_matlab_ert_rtw/onboard_matlab.c ****     rtb_MultiportSwitch_idx = (int16_T)rtb_IndexVector_idx;
1192:../custom_mdl/onboard_matlab_ert_rtw/onboard_matlab.c **** 
1193:../custom_mdl/onboard_matlab_ert_rtw/onboard_matlab.c ****     /* Gain: '<S3>/Gain39' incorporates:
1194:../custom_mdl/onboard_matlab_ert_rtw/onboard_matlab.c ****      *  BusSelector: '<S7>/Bus Selector'
1195:../custom_mdl/onboard_matlab_ert_rtw/onboard_matlab.c ****      *  Gain: '<S3>/Gain48'
1196:../custom_mdl/onboard_matlab_ert_rtw/onboard_matlab.c ****      *  Gain: '<S3>/Gain59'
1197:../custom_mdl/onboard_matlab_ert_rtw/onboard_matlab.c ****      *  Inport: '<Root>/UART_Data_In'
1198:../custom_mdl/onboard_matlab_ert_rtw/onboard_matlab.c ****      */
1199:../custom_mdl/onboard_matlab_ert_rtw/onboard_matlab.c ****     rtb_IndexVector_idx = 1280 * onboard_matlab_U.UART_Data_In.uart_ctrl_02 >> 7;
1200:../custom_mdl/onboard_matlab_ert_rtw/onboard_matlab.c ****     if (rtb_IndexVector_idx > 32767) {
1201:../custom_mdl/onboard_matlab_ert_rtw/onboard_matlab.c ****       rtb_IndexVector_idx = 32767;
1202:../custom_mdl/onboard_matlab_ert_rtw/onboard_matlab.c ****     } else {
1203:../custom_mdl/onboard_matlab_ert_rtw/onboard_matlab.c ****       if (rtb_IndexVector_idx < -32768) {
1204:../custom_mdl/onboard_matlab_ert_rtw/onboard_matlab.c ****         rtb_IndexVector_idx = -32768;
1205:../custom_mdl/onboard_matlab_ert_rtw/onboard_matlab.c ****       }
1206:../custom_mdl/onboard_matlab_ert_rtw/onboard_matlab.c ****     }
1207:../custom_mdl/onboard_matlab_ert_rtw/onboard_matlab.c **** 
1208:../custom_mdl/onboard_matlab_ert_rtw/onboard_matlab.c ****     rtb_MultiportSwitch_idx_0 = (int16_T)rtb_IndexVector_idx;
1209:../custom_mdl/onboard_matlab_ert_rtw/onboard_matlab.c **** 
1210:../custom_mdl/onboard_matlab_ert_rtw/onboard_matlab.c ****     /* Gain: '<S3>/Gain40' incorporates:
1211:../custom_mdl/onboard_matlab_ert_rtw/onboard_matlab.c ****      *  BusSelector: '<S7>/Bus Selector'
1212:../custom_mdl/onboard_matlab_ert_rtw/onboard_matlab.c ****      *  Gain: '<S3>/Gain39'
1213:../custom_mdl/onboard_matlab_ert_rtw/onboard_matlab.c ****      *  Gain: '<S3>/Gain60'
1214:../custom_mdl/onboard_matlab_ert_rtw/onboard_matlab.c ****      *  Inport: '<Root>/UART_Data_In'
1215:../custom_mdl/onboard_matlab_ert_rtw/onboard_matlab.c ****      */
1216:../custom_mdl/onboard_matlab_ert_rtw/onboard_matlab.c ****     rtb_IndexVector_idx = 1280 * onboard_matlab_U.UART_Data_In.uart_ctrl_03 >> 7;
1217:../custom_mdl/onboard_matlab_ert_rtw/onboard_matlab.c ****     if (rtb_IndexVector_idx > 32767) {
1218:../custom_mdl/onboard_matlab_ert_rtw/onboard_matlab.c ****       rtb_IndexVector_idx = 32767;
1219:../custom_mdl/onboard_matlab_ert_rtw/onboard_matlab.c ****     } else {
1220:../custom_mdl/onboard_matlab_ert_rtw/onboard_matlab.c ****       if (rtb_IndexVector_idx < -32768) {
1221:../custom_mdl/onboard_matlab_ert_rtw/onboard_matlab.c ****         rtb_IndexVector_idx = -32768;
1222:../custom_mdl/onboard_matlab_ert_rtw/onboard_matlab.c ****       }
1223:../custom_mdl/onboard_matlab_ert_rtw/onboard_matlab.c ****     }
1224:../custom_mdl/onboard_matlab_ert_rtw/onboard_matlab.c **** 
1225:../custom_mdl/onboard_matlab_ert_rtw/onboard_matlab.c ****     rtb_MultiportSwitch_idx_1 = (int16_T)rtb_IndexVector_idx;
1226:../custom_mdl/onboard_matlab_ert_rtw/onboard_matlab.c ****     rtb_MultiportSwitch_idx_2 = (int16_T)
1227:../custom_mdl/onboard_matlab_ert_rtw/onboard_matlab.c ****       (onboard_matlab_U.UART_Data_In.uart_ctrl_04 >> 1);
1228:../custom_mdl/onboard_matlab_ert_rtw/onboard_matlab.c ****     rtb_Gain14 = (int16_T)(onboard_matlab_U.UART_Data_In.uart_ctrl_05 >> 1);
1229:../custom_mdl/onboard_matlab_ert_rtw/onboard_matlab.c ****     rtb_Gain15 = onboard_matlab_ConstB.Gain43;
1230:../custom_mdl/onboard_matlab_ert_rtw/onboard_matlab.c ****     rtb_Gain16 = onboard_matlab_ConstB.Gain44;
1231:../custom_mdl/onboard_matlab_ert_rtw/onboard_matlab.c ****     rtb_Gain17 = onboard_matlab_ConstB.Gain45;
1232:../custom_mdl/onboard_matlab_ert_rtw/onboard_matlab.c ****     rtb_Saturation4_idx = onboard_matlab_ConstB.Gain46;
1233:../custom_mdl/onboard_matlab_ert_rtw/onboard_matlab.c ****     rtb_Saturation4_idx_0 = onboard_matlab_ConstB.Gain47;
1234:../custom_mdl/onboard_matlab_ert_rtw/onboard_matlab.c ****     break;
1235:../custom_mdl/onboard_matlab_ert_rtw/onboard_matlab.c **** 
1236:../custom_mdl/onboard_matlab_ert_rtw/onboard_matlab.c ****    case 5:
1237:../custom_mdl/onboard_matlab_ert_rtw/onboard_matlab.c ****     rtb_MultiportSwitch_idx = onboard_matlab_ConstB.Gain58;
1238:../custom_mdl/onboard_matlab_ert_rtw/onboard_matlab.c ****     rtb_MultiportSwitch_idx_0 = onboard_matlab_ConstB.Gain49;
1239:../custom_mdl/onboard_matlab_ert_rtw/onboard_matlab.c ****     rtb_MultiportSwitch_idx_1 = onboard_matlab_ConstB.Gain50;
1240:../custom_mdl/onboard_matlab_ert_rtw/onboard_matlab.c ****     rtb_MultiportSwitch_idx_2 = onboard_matlab_ConstB.Gain51;
1241:../custom_mdl/onboard_matlab_ert_rtw/onboard_matlab.c ****     rtb_Gain14 = onboard_matlab_ConstB.Gain52;
1242:../custom_mdl/onboard_matlab_ert_rtw/onboard_matlab.c ****     rtb_Gain15 = onboard_matlab_ConstB.Gain53;
1243:../custom_mdl/onboard_matlab_ert_rtw/onboard_matlab.c ****     rtb_Gain16 = onboard_matlab_ConstB.Gain54;
1244:../custom_mdl/onboard_matlab_ert_rtw/onboard_matlab.c ****     rtb_Gain17 = onboard_matlab_ConstB.Gain55;
1245:../custom_mdl/onboard_matlab_ert_rtw/onboard_matlab.c ****     rtb_Saturation4_idx = onboard_matlab_ConstB.Gain56;
1246:../custom_mdl/onboard_matlab_ert_rtw/onboard_matlab.c ****     rtb_Saturation4_idx_0 = onboard_matlab_ConstB.Gain57;
1247:../custom_mdl/onboard_matlab_ert_rtw/onboard_matlab.c ****     break;
1248:../custom_mdl/onboard_matlab_ert_rtw/onboard_matlab.c **** 
1249:../custom_mdl/onboard_matlab_ert_rtw/onboard_matlab.c ****    default:
1250:../custom_mdl/onboard_matlab_ert_rtw/onboard_matlab.c ****     rtb_MultiportSwitch_idx = rtb_Gain10;
1251:../custom_mdl/onboard_matlab_ert_rtw/onboard_matlab.c ****     rtb_MultiportSwitch_idx_0 = rtb_Saturation4_idx;
1252:../custom_mdl/onboard_matlab_ert_rtw/onboard_matlab.c ****     rtb_MultiportSwitch_idx_1 = rtb_Saturation4_idx_0;
1253:../custom_mdl/onboard_matlab_ert_rtw/onboard_matlab.c ****     rtb_MultiportSwitch_idx_2 = rtb_Saturation4_idx_1;
1254:../custom_mdl/onboard_matlab_ert_rtw/onboard_matlab.c ****     rtb_Saturation4_idx = onboard_matlab_ConstB.Gain18;
 2650              	3, r1, asl #4
 2651 1424 FC379FE5 		.loc 1 1303 0
1255:../custom_mdl/onboard_matlab_ert_rtw/onboard_matlab.c ****     rtb_Saturation4_idx_0 = onboard_matlab_ConstB.Gain19;
 2652              	dd	ip, r2, ip, asl #4
 2653 1428 0228A0E1 		.loc 1 1322 0
 2654              		ldr	sl, .L414+4
 2655 142c 0118A0E1 		.loc 1 1305 0
 2656              		add	lr, r4, lr, asl #4
 2657 1430 0008A0E1 		.loc 1 1301 0
 2658              		add	r3, r3, r1, asl #3
 2659 1434 B2E0D3E1 		.loc 1 1303 0
 2660 1438 2228A0E1 		add	r2, r2, ip, asl #3
 2661 143c 2118A0E1 		.loc 1 1322 0
 2662 1440 2008A0E1 		ldrh	r5, [sl, #8]
 2663 1444 0CC8A0E1 		.loc 1 1305 0
 2664              		add	r4, r4, lr, asl #3
 2665 1448 28E08DE5 		.loc 1 1325 0
 2666              		ldr	ip, [sp, #8]
 2667              		.loc 1 1317 0
 2668 144c B070D3E1 		ldr	lr, [sp, #40]
 2669              		.loc 1 1301 0
 2670              		mov	r3, r3, asl #2
 2671 1450 18208DE5 		.loc 1 1303 0
 2672              		mov	r2, r2, asl #2
 2673 1454 1C108DE5 		.loc 1 1301 0
 2674              		mov	r3, r3, asr #17
 2675 1458 20008DE5 		.loc 1 1303 0
 2676              		mov	r2, r2, asr #17
 2677 145c 2C98A0E1 		.loc 1 1317 0
 2678              		strh	lr, [r8, #74]	@ movhi
 2679              		.loc 1 1301 0
1256:../custom_mdl/onboard_matlab_ert_rtw/onboard_matlab.c ****     break;
1257:../custom_mdl/onboard_matlab_ert_rtw/onboard_matlab.c ****   }
1258:../custom_mdl/onboard_matlab_ert_rtw/onboard_matlab.c **** 
1259:../custom_mdl/onboard_matlab_ert_rtw/onboard_matlab.c ****   /* End of MultiPortSwitch: '<S3>/Multiport Switch' */
1260:../custom_mdl/onboard_matlab_ert_rtw/onboard_matlab.c **** 
1261:../custom_mdl/onboard_matlab_ert_rtw/onboard_matlab.c ****   /* Outport: '<Root>/UART_Data_Out' incorporates:
1262:../custom_mdl/onboard_matlab_ert_rtw/onboard_matlab.c ****    *  BusCreator: '<Root>/BusConversion_InsertedFor_UART_Data_Out_at_inport_0'
1263:../custom_mdl/onboard_matlab_ert_rtw/onboard_matlab.c ****    *  BusSelector: '<S6>/Bus Selector'
1264:../custom_mdl/onboard_matlab_ert_rtw/onboard_matlab.c ****    *  Gain: '<S3>/Gain'
1265:../custom_mdl/onboard_matlab_ert_rtw/onboard_matlab.c ****    *  Gain: '<S3>/Gain1'
1266:../custom_mdl/onboard_matlab_ert_rtw/onboard_matlab.c ****    *  Gain: '<S3>/Gain2'
1267:../custom_mdl/onboard_matlab_ert_rtw/onboard_matlab.c ****    *  Gain: '<S3>/Gain3'
1268:../custom_mdl/onboard_matlab_ert_rtw/onboard_matlab.c ****    *  Gain: '<S3>/Gain4'
1269:../custom_mdl/onboard_matlab_ert_rtw/onboard_matlab.c ****    *  Gain: '<S3>/Gain5'
1270:../custom_mdl/onboard_matlab_ert_rtw/onboard_matlab.c ****    *  Gain: '<S3>/Gain6'
1271:../custom_mdl/onboard_matlab_ert_rtw/onboard_matlab.c ****    *  Gain: '<S3>/Gain7'
1272:../custom_mdl/onboard_matlab_ert_rtw/onboard_matlab.c ****    *  Gain: '<S3>/Gain8'
1273:../custom_mdl/onboard_matlab_ert_rtw/onboard_matlab.c ****    *  Gain: '<S6>/Gain'
1274:../custom_mdl/onboard_matlab_ert_rtw/onboard_matlab.c ****    *  Gain: '<S6>/Gain1'
1275:../custom_mdl/onboard_matlab_ert_rtw/onboard_matlab.c ****    *  Gain: '<S6>/Gain2'
1276:../custom_mdl/onboard_matlab_ert_rtw/onboard_matlab.c ****    *  Gain: '<S6>/Gain3'
1277:../custom_mdl/onboard_matlab_ert_rtw/onboard_matlab.c ****    *  Gain: '<S6>/Gain4'
1278:../custom_mdl/onboard_matlab_ert_rtw/onboard_matlab.c ****    *  Gain: '<S6>/Gain5'
1279:../custom_mdl/onboard_matlab_ert_rtw/onboard_matlab.c ****    *  Gain: '<S6>/Gain6'
1280:../custom_mdl/onboard_matlab_ert_rtw/onboard_matlab.c ****    *  Gain: '<S6>/Gain7'
1281:../custom_mdl/onboard_matlab_ert_rtw/onboard_matlab.c ****    *  Gain: '<S6>/Gain8'
1282:../custom_mdl/onboard_matlab_ert_rtw/onboard_matlab.c ****    *  Inport: '<Root>/IMU_Data_In'
1283:../custom_mdl/onboard_matlab_ert_rtw/onboard_matlab.c ****    */
1284:../custom_mdl/onboard_matlab_ert_rtw/onboard_matlab.c ****   onboard_matlab_Y.UART_Data_Out.uart_debug_01 = (int16_T)((int16_T)
 2680              		.loc 1 1303 0
 2681 1460 00109AE5 		strh	r2, [r8, #50]	@ movhi
 2682 1464 C0079FE5 		.loc 1 1298 0
 2683              		mov	r0, r0, asl #16
 2684 1468 FEFFFFEB 		.loc 1 1308 0
 2685 146c 0038A0E1 		ldr	r2, [sp, #24]
 2686 1470 C33AA0E1 		.loc 1 1305 0
1285:../custom_mdl/onboard_matlab_ert_rtw/onboard_matlab.c ****     mul_s32_s32_s32_sr30(307041569, onboard_matlab_U.IMU_Data_In.angle_roll) >>
1286:../custom_mdl/onboard_matlab_ert_rtw/onboard_matlab.c ****     5);
1287:../custom_mdl/onboard_matlab_ert_rtw/onboard_matlab.c ****   onboard_matlab_Y.UART_Data_Out.uart_debug_02 = (int16_T)((int16_T)
 2687              	, r4, asl #2
 2688 1474 04109AE5 		.loc 1 1322 0
 2689              		add	r5, r5, #1
 2690 1478 B432C8E1 		.loc 1 1325 0
 2691              		cmp	ip, #0
 2692 147c A8079FE5 		.loc 1 1307 0
 2693 1480 FEFFFFEB 		ldr	r1, [sp, #12]
 2694 1484 0038A0E1 		.loc 1 1309 0
 2695 1488 C33AA0E1 		add	r3, sp, #28
1288:../custom_mdl/onboard_matlab_ert_rtw/onboard_matlab.c ****     mul_s32_s32_s32_sr30(307041569, onboard_matlab_U.IMU_Data_In.angle_pitch) >>
1289:../custom_mdl/onboard_matlab_ert_rtw/onboard_matlab.c ****     5);
1290:../custom_mdl/onboard_matlab_ert_rtw/onboard_matlab.c ****   onboard_matlab_Y.UART_Data_Out.uart_debug_03 = (int16_T)((int16_T)
 2696              	, {r3, sl}	@ phole ldm
 2697 148c 08109AE5 		.loc 1 1312 0
 2698              		add	ip, sp, #16
 2699 1490 B632C8E1 		ldmia	ip, {ip, lr}	@ phole ldm
 2700              		.loc 1 1298 0
 2701 1494 90079FE5 		mov	r0, r0, asr #19
 2702 1498 FEFFFFEB 		.loc 1 1305 0
 2703 149c 0038A0E1 		mov	r4, r4, asr #17
 2704 14a0 C339A0E1 		.loc 1 1322 0
1291:../custom_mdl/onboard_matlab_ert_rtw/onboard_matlab.c ****     mul_s32_s32_s32_sr32(307041569, onboard_matlab_U.IMU_Data_In.angle_yaw) >> 3);
1292:../custom_mdl/onboard_matlab_ert_rtw/onboard_matlab.c ****   onboard_matlab_Y.UART_Data_Out.uart_debug_04 = (int16_T)((int16_T)
 2705              	r5, asl #16
 2706 14a4 0C109AE5 		.loc 1 1308 0
 2707              		strh	r2, [r8, #56]	@ movhi
 2708 14a8 B832C8E1 		.loc 1 1298 0
 2709              		strh	r0, [r8, #46]	@ movhi
 2710 14ac 7C079FE5 		.loc 1 1305 0
 2711 14b0 FEFFFFEB 		strh	r4, [r8, #52]	@ movhi
 2712 14b4 0038A0E1 		.loc 1 1307 0
 2713 14b8 C339A0E1 		strh	r1, [r8, #54]	@ movhi
1293:../custom_mdl/onboard_matlab_ert_rtw/onboard_matlab.c ****     mul_s32_s32_s32_sr30(1184573955, onboard_matlab_U.IMU_Data_In.angvel_roll) >>
1294:../custom_mdl/onboard_matlab_ert_rtw/onboard_matlab.c ****     3);
1295:../custom_mdl/onboard_matlab_ert_rtw/onboard_matlab.c ****   onboard_matlab_Y.UART_Data_Out.uart_debug_05 = (int16_T)((int16_T)
 2714              	309 0
 2715 14bc 10109AE5 		strh	r3, [r8, #58]	@ movhi
 2716              		.loc 1 1310 0
 2717 14c0 BA32C8E1 		strh	sl, [r8, #60]	@ movhi
 2718              		.loc 1 1311 0
 2719 14c4 64079FE5 		strh	r9, [r8, #62]	@ movhi
 2720 14c8 FEFFFFEB 		.loc 1 1312 0
 2721 14cc 0038A0E1 		strh	ip, [r8, #64]	@ movhi
 2722 14d0 C339A0E1 		.loc 1 1313 0
1296:../custom_mdl/onboard_matlab_ert_rtw/onboard_matlab.c ****     mul_s32_s32_s32_sr30(1184573955, onboard_matlab_U.IMU_Data_In.angvel_pitch) >>
1297:../custom_mdl/onboard_matlab_ert_rtw/onboard_matlab.c ****     3);
1298:../custom_mdl/onboard_matlab_ert_rtw/onboard_matlab.c ****   onboard_matlab_Y.UART_Data_Out.uart_debug_06 = (int16_T)((int16_T)
 2723              	 [r8, #66]	@ movhi
 2724 14d4 14109AE5 		.loc 1 1314 0
 2725              		strh	fp, [r8, #68]	@ movhi
 2726 14d8 BC32C8E1 		.loc 1 1315 0
 2727              		strh	r6, [r8, #70]	@ movhi
 2728 14dc 4C079FE5 		.loc 1 1316 0
 2729 14e0 FEFFFFEB 		strh	r7, [r8, #72]	@ movhi
1299:../custom_mdl/onboard_matlab_ert_rtw/onboard_matlab.c ****     mul_s32_s32_s32_sr30(1184573955, onboard_matlab_U.IMU_Data_In.angvel_yaw) >>
1300:../custom_mdl/onboard_matlab_ert_rtw/onboard_matlab.c ****     3);
1301:../custom_mdl/onboard_matlab_ert_rtw/onboard_matlab.c ****   onboard_matlab_Y.UART_Data_Out.uart_debug_07 = (int16_T)((int16_T)(16777 *
 2730              	 1322 0
 2731 14e4 F831DAE1 		ldr	r2, .L414+4
1302:../custom_mdl/onboard_matlab_ert_rtw/onboard_matlab.c ****     onboard_matlab_U.IMU_Data_In.acc_x >> 14) >> 1);
1303:../custom_mdl/onboard_matlab_ert_rtw/onboard_matlab.c ****   onboard_matlab_Y.UART_Data_Out.uart_debug_08 = (int16_T)((int16_T)(16777 *
 2732              	ov	r8, r5, lsr #16
 2733 14e8 FA21DAE1 	.LVL369:
1304:../custom_mdl/onboard_matlab_ert_rtw/onboard_matlab.c ****     onboard_matlab_U.IMU_Data_In.acc_y >> 14) >> 1);
1305:../custom_mdl/onboard_matlab_ert_rtw/onboard_matlab.c ****   onboard_matlab_Y.UART_Data_Out.uart_debug_09 = (int16_T)((int16_T)(16777 *
 2734              	loc 1 1325 0
 2735 14ec FC41DAE1 		beq	.L411
 2736              		.loc 1 1366 0
 2737 14f0 031383E0 		ldr	r7, [sp, #8]
 2738              	.LVL370:
 2739 14f4 02C382E0 		mov	r3, r7, asl #24
 2740              		cmp	r3, #0
 2741 14f8 04E384E0 		.loc 1 1367 0
 2742              		movgt	r3, #1
 2743 14fc 811083E0 		.loc 1 1369 0
 2744              		mvnle	r3, #0
 2745 1500 8CC082E0 		.loc 1 1367 0
 2746              		strgtb	r3, [r2, #10]
 2747 1504 8EE084E0 		.loc 1 1369 0
 2748              		strleb	r3, [r2, #10]
 2749 1508 011283E0 	.L395:
 2750              		.loc 1 1377 0
 2751 150c 0CC282E0 		ldr	sl, [sp, #36]
1306:../custom_mdl/onboard_matlab_ert_rtw/onboard_matlab.c ****     onboard_matlab_U.IMU_Data_In.acc_z >> 14) >> 1);
1307:../custom_mdl/onboard_matlab_ert_rtw/onboard_matlab.c ****   onboard_matlab_Y.UART_Data_Out.uart_debug_10 = rtb_DataTypeConversion;
1308:../custom_mdl/onboard_matlab_ert_rtw/onboard_matlab.c ****   onboard_matlab_Y.UART_Data_Out.uart_debug_11 = rtb_MultiportSwitch_idx;
1309:../custom_mdl/onboard_matlab_ert_rtw/onboard_matlab.c ****   onboard_matlab_Y.UART_Data_Out.uart_debug_12 = rtb_MultiportSwitch_idx_0;
1310:../custom_mdl/onboard_matlab_ert_rtw/onboard_matlab.c ****   onboard_matlab_Y.UART_Data_Out.uart_debug_13 = rtb_MultiportSwitch_idx_1;
1311:../custom_mdl/onboard_matlab_ert_rtw/onboard_matlab.c ****   onboard_matlab_Y.UART_Data_Out.uart_debug_14 = rtb_MultiportSwitch_idx_2;
1312:../custom_mdl/onboard_matlab_ert_rtw/onboard_matlab.c ****   onboard_matlab_Y.UART_Data_Out.uart_debug_15 = rtb_Gain14;
1313:../custom_mdl/onboard_matlab_ert_rtw/onboard_matlab.c ****   onboard_matlab_Y.UART_Data_Out.uart_debug_16 = rtb_Gain15;
1314:../custom_mdl/onboard_matlab_ert_rtw/onboard_matlab.c ****   onboard_matlab_Y.UART_Data_Out.uart_debug_17 = rtb_Gain16;
1315:../custom_mdl/onboard_matlab_ert_rtw/onboard_matlab.c ****   onboard_matlab_Y.UART_Data_Out.uart_debug_18 = rtb_Gain17;
1316:../custom_mdl/onboard_matlab_ert_rtw/onboard_matlab.c ****   onboard_matlab_Y.UART_Data_Out.uart_debug_19 = rtb_Saturation4_idx;
1317:../custom_mdl/onboard_matlab_ert_rtw/onboard_matlab.c ****   onboard_matlab_Y.UART_Data_Out.uart_debug_20 = rtb_Saturation4_idx_0;
1318:../custom_mdl/onboard_matlab_ert_rtw/onboard_matlab.c **** 
1319:../custom_mdl/onboard_matlab_ert_rtw/onboard_matlab.c ****   /* Sum: '<S14>/Sum' incorporates:
1320:../custom_mdl/onboard_matlab_ert_rtw/onboard_matlab.c ****    *  UnitDelay: '<S14>/Unit Delay'
1321:../custom_mdl/onboard_matlab_ert_rtw/onboard_matlab.c ****    */
1322:../custom_mdl/onboard_matlab_ert_rtw/onboard_matlab.c ****   rtb_Gain10 = (int16_T)(onboard_matlab_DWork.UnitDelay_DSTATE + 1);
 2752              	L396
 2753 1510 E0A69FE5 		.loc 1 1378 0
 2754              		ldr	ip, .L414+4
 2755 1514 0EE284E0 		ldr	r3, [ip, #4]
 2756              		add	r3, r3, #2096
 2757 1518 813183E0 		add	r3, r3, #1
 2758              		str	r3, [ip, #4]
 2759 151c 8C2182E0 		.loc 1 1386 0
 2760              		strb	sl, [ip, #11]
 2761 1520 B850DAE1 	.L398:
 2762              		.loc 1 1392 0
 2763 1524 8E4184E0 		mov	r3, r8, asl #16
1323:../custom_mdl/onboard_matlab_ert_rtw/onboard_matlab.c **** 
1324:../custom_mdl/onboard_matlab_ert_rtw/onboard_matlab.c ****   /* Update for DiscreteIntegrator: '<S11>/Discrete-Time Integrator1' */
1325:../custom_mdl/onboard_matlab_ert_rtw/onboard_matlab.c ****   if (rtb_Sum2 == 0) {
 2764              	53600
 2765 1528 08C09DE5 		.loc 1 1396 0
 2766              		ldrgt	r2, .L414+4
 2767 152c 28E09DE5 		.loc 1 1399 0
 2768              		ldrle	r7, .L414+4
 2769 1530 0331A0E1 		.loc 1 1396 0
 2770              		movgt	r3, #1	@ movhi
 2771 1534 0221A0E1 		strgth	r3, [r2, #8]	@ movhi
 2772              		.loc 1 1399 0
 2773 1538 C338A0E1 		strleh	r8, [r7, #8]	@ movhi
 2774              		.loc 1 1403 0
 2775 153c C228A0E1 		add	sp, sp, #232
 2776              		ldmfd	sp!, {r4, r5, r6, r7, r8, r9, sl, fp, lr}
 2777 1540 BAE4C8E1 		bx	lr
 2778              	.LVL371:
 2779 1544 B033C8E1 	.L407:
 2780              		.loc 1 686 0
 2781 1548 B223C8E1 		ldr	ip, .L414+4
 2782              		ldrsb	r3, [ip, #10]
 2783 154c 0008A0E1 		cmp	r3, #0
 2784              		bne	.L310
 2785 1550 18209DE5 		.loc 1 691 0
 2786              		cmp	r2, r0
 2787 1554 0441A0E1 		.loc 1 692 0
 2788              		ldrgt	r3, .L414+64
 2789 1558 015085E2 		ldrgt	r2, .L414+4
 2790              		strgt	r3, [r2, #0]
 2791 155c 00005CE3 		.loc 1 691 0
 2792              		bgt	.L313
 2793 1560 0C109DE5 		.loc 1 694 0
 2794              		cmp	r2, r1
 2795 1564 1C308DE2 		.loc 1 695 0
 2796 1568 080493E8 		ldrle	r3, .L414+4
 2797              		strle	r1, [r3, #0]
 2798 156c 10C08DE2 		b	.L313
 2799 1570 00509CE8 	.LVL372:
 2800              	.L396:
 2801 1574 C009A0E1 		.loc 1 1382 0
 2802              		ldrgt	lr, .L414+4
 2803 1578 C448A0E1 		.loc 1 1384 0
 2804              		ldrle	r1, .L414+4
 2805 157c 0558A0E1 		.loc 1 1382 0
 2806              		movgt	r3, #1
 2807 1580 B823C8E1 		.loc 1 1384 0
 2808              		mvnle	r3, #0
 2809 1584 BE02C8E1 		.loc 1 1382 0
 2810              		strgtb	r3, [lr, #11]
 2811 1588 B443C8E1 		.loc 1 1384 0
 2812              		strleb	r3, [r1, #11]
 2813 158c B613C8E1 		b	.L398
 2814              	.LVL373:
 2815 1590 BA33C8E1 	.L410:
 2816              		.loc 1 972 0
 2817 1594 BCA3C8E1 		ldr	r3, .L414+4
 2818              		mov	r1, #20
 2819 1598 BE93C8E1 		ldrsh	r0, [r3, #8]
 2820              		bl	div_nzp_s32_ceiling
 2821 159c B0C4C8E1 		ldr	r3, .L414+28
 2822              		mov	r0, r0, asl #16
 2823 15a0 B2E4C8E1 		add	r3, r3, r0, asr #15
 2824              		ldrh	r3, [r3, #22]
 2825 15a4 B4B4C8E1 		str	r3, [sp, #12]
 2826              		b	.L369
 2827 15a8 B664C8E1 	.LVL374:
 2828              	.L411:
 2829 15ac B874C8E1 		.loc 1 1328 0
 2830              		mov	r4, #3
 2831 15b0 40269FE5 		.loc 1 1327 0
 2832 15b4 2588A0E1 		mov	r0, #32512
 2833              		add	r0, r0, #255
 2834              		add	r1, sp, #156
 2835 15b8 3700000A 		mov	r2, r4
1326:../custom_mdl/onboard_matlab_ert_rtw/onboard_matlab.c ****     /* Saturate: '<S11>/Saturation4' */
1327:../custom_mdl/onboard_matlab_ert_rtw/onboard_matlab.c ****     sLong2MultiWord(32767, &tmp_a.chunks[0U], 3);
1328:../custom_mdl/onboard_matlab_ert_rtw/onboard_matlab.c ****     sMultiWordShl(&tmp_a.chunks[0U], 3, 38U, &tmp_9.chunks[0U], 3);
1329:../custom_mdl/onboard_matlab_ert_rtw/onboard_matlab.c ****     sMultiWord2MultiWord(&tmp_9.chunks[0U], 3, &tmp_2.chunks[0U], 2);
1330:../custom_mdl/onboard_matlab_ert_rtw/onboard_matlab.c ****     if (sMultiWordGe(&rtb_Sum3.chunks[0U], &tmp_2.chunks[0U], 2)) {
1331:../custom_mdl/onboard_matlab_ert_rtw/onboard_matlab.c ****       rtb_Saturation4_idx = MAX_int16_T;
1332:../custom_mdl/onboard_matlab_ert_rtw/onboard_matlab.c ****     } else {
1333:../custom_mdl/onboard_matlab_ert_rtw/onboard_matlab.c ****       sLong2MultiWord(0, &tmp_a.chunks[0U], 3);
1334:../custom_mdl/onboard_matlab_ert_rtw/onboard_matlab.c ****       sMultiWordShl(&tmp_a.chunks[0U], 3, 38U, &tmp_9.chunks[0U], 3);
1335:../custom_mdl/onboard_matlab_ert_rtw/onboard_matlab.c ****       sMultiWord2MultiWord(&tmp_9.chunks[0U], 3, &tmp_b.chunks[0U], 2);
1336:../custom_mdl/onboard_matlab_ert_rtw/onboard_matlab.c ****       if (sMultiWordLe(&rtb_Sum3.chunks[0U], &tmp_b.chunks[0U], 2)) {
1337:../custom_mdl/onboard_matlab_ert_rtw/onboard_matlab.c ****         rtb_Saturation4_idx = 0;
1338:../custom_mdl/onboard_matlab_ert_rtw/onboard_matlab.c ****       } else {
1339:../custom_mdl/onboard_matlab_ert_rtw/onboard_matlab.c ****         sMultiWordShrZero(&rtb_Sum3.chunks[0U], 2, 38U, &tmp_d.chunks[0U], 2);
1340:../custom_mdl/onboard_matlab_ert_rtw/onboard_matlab.c ****         rtb_Saturation4_idx = (int16_T)MultiWord2sLong(&tmp_d.chunks[0U]);
1341:../custom_mdl/onboard_matlab_ert_rtw/onboard_matlab.c ****       }
1342:../custom_mdl/onboard_matlab_ert_rtw/onboard_matlab.c ****     }
1343:../custom_mdl/onboard_matlab_ert_rtw/onboard_matlab.c **** 
1344:../custom_mdl/onboard_matlab_ert_rtw/onboard_matlab.c ****     /* End of Saturate: '<S11>/Saturation4' */
1345:../custom_mdl/onboard_matlab_ert_rtw/onboard_matlab.c ****     tmp_2 = onboard_matlab_ConstP.DiscreteTimeIntegrator1_ga;
1346:../custom_mdl/onboard_matlab_ert_rtw/onboard_matlab.c **** 
1347:../custom_mdl/onboard_matlab_ert_rtw/onboard_matlab.c ****     /* Product: '<S11>/Product' incorporates:
1348:../custom_mdl/onboard_matlab_ert_rtw/onboard_matlab.c ****      *  Gain: '<S11>/Gain1'
1349:../custom_mdl/onboard_matlab_ert_rtw/onboard_matlab.c ****      */
1350:../custom_mdl/onboard_matlab_ert_rtw/onboard_matlab.c ****     sLong2MultiWord(25736 * rtb_Saturation4_idx, &tmp_f.chunks[0U], 2);
1351:../custom_mdl/onboard_matlab_ert_rtw/onboard_matlab.c ****     sMultiWordShl(&tmp_f.chunks[0U], 2, 8U, &tmp_e.chunks[0U], 2);
1352:../custom_mdl/onboard_matlab_ert_rtw/onboard_matlab.c ****     sMultiWordMul(&tmp_2.chunks[0U], 2, &tmp_e.chunks[0U], 2, &tmp_8.chunks[0U],
1353:../custom_mdl/onboard_matlab_ert_rtw/onboard_matlab.c ****                   4);
1354:../custom_mdl/onboard_matlab_ert_rtw/onboard_matlab.c ****     sMultiWordShrZero(&tmp_8.chunks[0U], 4, 62U, &tmp_7.chunks[0U], 4);
1355:../custom_mdl/onboard_matlab_ert_rtw/onboard_matlab.c ****     onboard_matlab_DWork.DiscreteTimeIntegrator1_DSTATE += MultiWord2sLong
1356:../custom_mdl/onboard_matlab_ert_rtw/onboard_matlab.c ****       (&tmp_7.chunks[0U]);
1357:../custom_mdl/onboard_matlab_ert_rtw/onboard_matlab.c ****     if (onboard_matlab_DWork.DiscreteTimeIntegrator1_DSTATE >= 1686629713) {
1358:../custom_mdl/onboard_matlab_ert_rtw/onboard_matlab.c ****       onboard_matlab_DWork.DiscreteTimeIntegrator1_DSTATE = 1686629713;
1359:../custom_mdl/onboard_matlab_ert_rtw/onboard_matlab.c ****     } else {
1360:../custom_mdl/onboard_matlab_ert_rtw/onboard_matlab.c ****       if (onboard_matlab_DWork.DiscreteTimeIntegrator1_DSTATE <= -1686629713) {
1361:../custom_mdl/onboard_matlab_ert_rtw/onboard_matlab.c ****         onboard_matlab_DWork.DiscreteTimeIntegrator1_DSTATE = -1686629713;
1362:../custom_mdl/onboard_matlab_ert_rtw/onboard_matlab.c ****       }
1363:../custom_mdl/onboard_matlab_ert_rtw/onboard_matlab.c ****     }
1364:../custom_mdl/onboard_matlab_ert_rtw/onboard_matlab.c ****   }
1365:../custom_mdl/onboard_matlab_ert_rtw/onboard_matlab.c **** 
1366:../custom_mdl/onboard_matlab_ert_rtw/onboard_matlab.c ****   if (rtb_Sum2 > 0) {
 2836              	mov	r1, r4
 2837 15bc 08709DE5 		mov	r2, #38
 2838              		str	r4, [sp, #0]
 2839 15c0 073CA0E1 		bl	sMultiWordShl
 2840 15c4 000053E3 		.loc 1 1329 0
1367:../custom_mdl/onboard_matlab_ert_rtw/onboard_matlab.c ****     onboard_matlab_DWork.DiscreteTimeIntegrator1_PrevRes = 1;
 2841              	r0, sp, #132
 2842 15c8 0130A0C3 		mov	r1, r4
1368:../custom_mdl/onboard_matlab_ert_rtw/onboard_matlab.c ****   } else if (rtb_Sum2 < 0) {
1369:../custom_mdl/onboard_matlab_ert_rtw/onboard_matlab.c ****     onboard_matlab_DWork.DiscreteTimeIntegrator1_PrevRes = -1;
 2843              	dd	r2, sp, #216
 2844 15cc 0030E0D3 		mov	r3, #2
 2845              		bl	sMultiWord2MultiWord
 2846 15d0 0A30C2C5 		.loc 1 1330 0
 2847              		add	r0, sp, #200
 2848 15d4 0A30C2D5 		add	r1, sp, #216
 2849              		mov	r2, #2
1370:../custom_mdl/onboard_matlab_ert_rtw/onboard_matlab.c ****   } else {
1371:../custom_mdl/onboard_matlab_ert_rtw/onboard_matlab.c ****     onboard_matlab_DWork.DiscreteTimeIntegrator1_PrevRes = 0;
1372:../custom_mdl/onboard_matlab_ert_rtw/onboard_matlab.c ****   }
1373:../custom_mdl/onboard_matlab_ert_rtw/onboard_matlab.c **** 
1374:../custom_mdl/onboard_matlab_ert_rtw/onboard_matlab.c ****   /* End of Update for DiscreteIntegrator: '<S11>/Discrete-Time Integrator1' */
1375:../custom_mdl/onboard_matlab_ert_rtw/onboard_matlab.c **** 
1376:../custom_mdl/onboard_matlab_ert_rtw/onboard_matlab.c ****   /* Update for DiscreteIntegrator: '<S11>/Discrete-Time Integrator2' */
1377:../custom_mdl/onboard_matlab_ert_rtw/onboard_matlab.c ****   if (rtb_Sum3_h == 0) {
 2850              	ltiWordGe
 2851 15d8 24A09DE5 		cmp	r0, #0
 2852 15dc 00005AE3 		movne	r0, #843055104
 2853 15e0 1C00001A 		addne	r0, r0, #235520
1378:../custom_mdl/onboard_matlab_ert_rtw/onboard_matlab.c ****     onboard_matlab_DWork.DiscreteTimeIntegrator2_DSTATE += 2097;
 2854              	ne	r0, r0, #888
 2855 15e4 0CC69FE5 		beq	.L412
 2856 15e8 04309CE5 	.L386:
 2857 15ec 833E83E2 		.loc 1 1345 0
 2858 15f0 013083E2 		ldr	r3, .L414+28
 2859 15f4 04308CE5 		.loc 1 1351 0
1379:../custom_mdl/onboard_matlab_ert_rtw/onboard_matlab.c ****   }
1380:../custom_mdl/onboard_matlab_ert_rtw/onboard_matlab.c **** 
1381:../custom_mdl/onboard_matlab_ert_rtw/onboard_matlab.c ****   if (rtb_Sum3_h > 0) {
1382:../custom_mdl/onboard_matlab_ert_rtw/onboard_matlab.c ****     onboard_matlab_DWork.DiscreteTimeIntegrator2_PrevRes = 1;
1383:../custom_mdl/onboard_matlab_ert_rtw/onboard_matlab.c ****   } else if (rtb_Sum3_h < 0) {
1384:../custom_mdl/onboard_matlab_ert_rtw/onboard_matlab.c ****     onboard_matlab_DWork.DiscreteTimeIntegrator2_PrevRes = -1;
1385:../custom_mdl/onboard_matlab_ert_rtw/onboard_matlab.c ****   } else {
1386:../custom_mdl/onboard_matlab_ert_rtw/onboard_matlab.c ****     onboard_matlab_DWork.DiscreteTimeIntegrator2_PrevRes = 0;
 2860              	4, #2
 2861 15f8 0BA0CCE5 		.loc 1 1345 0
 2862              		add	r6, r3, #16
1387:../custom_mdl/onboard_matlab_ert_rtw/onboard_matlab.c ****   }
1388:../custom_mdl/onboard_matlab_ert_rtw/onboard_matlab.c **** 
1389:../custom_mdl/onboard_matlab_ert_rtw/onboard_matlab.c ****   /* End of Update for DiscreteIntegrator: '<S11>/Discrete-Time Integrator2' */
1390:../custom_mdl/onboard_matlab_ert_rtw/onboard_matlab.c **** 
1391:../custom_mdl/onboard_matlab_ert_rtw/onboard_matlab.c ****   /* Switch: '<S14>/FixPt Switch' */
1392:../custom_mdl/onboard_matlab_ert_rtw/onboard_matlab.c ****   if (rtb_Gain10 > 100) {
 2863              	mia	r6, {r6, ip}	@ phole ldm
 2864 15fc 0838A0E1 	.LVL375:
 2865 1600 190753E3 		.loc 1 1350 0
1393:../custom_mdl/onboard_matlab_ert_rtw/onboard_matlab.c ****     /* Update for UnitDelay: '<S14>/Unit Delay' incorporates:
1394:../custom_mdl/onboard_matlab_ert_rtw/onboard_matlab.c ****      *  Constant: '<S14>/Constant1'
1395:../custom_mdl/onboard_matlab_ert_rtw/onboard_matlab.c ****      */
1396:../custom_mdl/onboard_matlab_ert_rtw/onboard_matlab.c ****     onboard_matlab_DWork.UnitDelay_DSTATE = 1;
 2866              	d	r5, sp, #168
 2867 1604 EC259FC5 		mov	r1, r5
1397:../custom_mdl/onboard_matlab_ert_rtw/onboard_matlab.c ****   } else {
1398:../custom_mdl/onboard_matlab_ert_rtw/onboard_matlab.c ****     /* Update for UnitDelay: '<S14>/Unit Delay' */
1399:../custom_mdl/onboard_matlab_ert_rtw/onboard_matlab.c ****     onboard_matlab_DWork.UnitDelay_DSTATE = rtb_Gain10;
 2868              	ov	r2, r4
 2869 1608 E8759FD5 		.loc 1 1351 0
 2870              		add	r7, sp, #192
 2871 160c 0130A0C3 	.LVL376:
 2872 1610 B830C2C1 		.loc 1 1345 0
 2873              		str	ip, [sp, #220]
 2874 1614 B880C7D1 		str	r6, [sp, #216]
1400:../custom_mdl/onboard_matlab_ert_rtw/onboard_matlab.c ****   }
1401:../custom_mdl/onboard_matlab_ert_rtw/onboard_matlab.c **** 
1402:../custom_mdl/onboard_matlab_ert_rtw/onboard_matlab.c ****   /* End of Switch: '<S14>/FixPt Switch' */
1403:../custom_mdl/onboard_matlab_ert_rtw/onboard_matlab.c **** }
 2875              	 1350 0
 2876 1618 E8D08DE2 		bl	sLong2MultiWord
 2877 161c F04FBDE8 		.loc 1 1351 0
 2878 1620 1EFF2FE1 		mov	r0, r5
 2879              		mov	r1, r4
 2880              		mov	r2, #8
 2881              		mov	r3, r7
 2882 1624 CCC59FE5 		str	r4, [sp, #0]
 2883 1628 DA30DCE1 		bl	sMultiWordShl
 2884 162c 000053E3 		.loc 1 1352 0
 2885 1630 1EFEFF1A 		mov	r1, r4
 2886              		mov	r3, r1
 2887 1634 000052E1 		add	r4, r4, r4
 2888              		add	r0, sp, #216
 2889 1638 F4359FC5 		mov	r2, r7
 2890 163c B4259FC5 		add	r5, sp, #116
 2891 1640 003082C5 		.loc 1 1354 0
 2892              		add	r6, sp, #100
 2893 1644 1CFEFFCA 		.loc 1 1352 0
 2894              		str	r5, [sp, #0]
 2895 1648 010052E1 		str	r4, [sp, #4]
 2896              		bl	sMultiWordMul
 2897 164c A4359FD5 		.loc 1 1354 0
 2898 1650 001083D5 		mov	r1, r4
 2899 1654 18FEFFEA 		mov	r2, #62
 2900              		mov	r3, r6
 2901              		mov	r0, r5
 2902              		str	r4, [sp, #0]
 2903 1658 98E59FC5 		bl	sMultiWordShrZero
 2904              		.loc 1 1355 0
 2905 165c 94159FD5 		mov	r0, r6
 2906              		bl	MultiWord2sLong
 2907 1660 0130A0C3 		ldr	r1, .L414+4
 2908              		ldr	r3, [r1, #0]
 2909 1664 0030E0D3 		.loc 1 1357 0
 2910              		ldr	r2, .L414+12
 2911 1668 0B30CEC5 		.loc 1 1355 0
 2912              		add	r0, r0, r3
 2913 166c 0B30C1D5 		.loc 1 1357 0
 2914 1670 E1FFFFEA 		cmp	r0, r2
 2915              		.loc 1 1358 0
 2916              		ldrgt	r3, .L414+64
 2917              		.loc 1 1355 0
 2918 1674 7C359FE5 		str	r0, [r1, #0]
 2919 1678 1410A0E3 		.loc 1 1358 0
 2920 167c F800D3E1 		strgt	r3, [r1, #0]
 2921 1680 FEFFFFEB 		.loc 1 1357 0
 2922 1684 84359FE5 		ble	.L413
 2923 1688 0008A0E1 		.loc 1 1371 0
 2924 168c C03783E0 		ldr	sl, .L414+4
 2925 1690 B631D3E1 		mov	r3, #0
 2926 1694 0C308DE5 		strb	r3, [sl, #10]
 2927 1698 37FFFFEA 		b	.L395
 2928              	.LVL377:
 2929              	.L329:
 2930              		.loc 1 766 0
 2931 169c 0340A0E3 		ldr	r3, .L414+68
 2932              		cmp	r2, r3
 2933 16a0 7F0CA0E3 		bge	.L406
 2934 16a4 FF0080E2 		.loc 1 768 0
 2935 16a8 9C108DE2 		mov	r3, #-1275068413
 2936 16ac 0420A0E1 		add	r3, r3, #10092544
 2937 16b0 FEFFFFEB 		add	r3, r3, #3584
 2938              		cmp	r2, r3
 2939 16b4 84308DE2 		.loc 1 770 0
 2940 16b8 9C008DE2 		addge	r2, r2, #843055104
 2941 16bc 0410A0E1 		addge	r2, r2, #259072
 2942 16c0 2620A0E3 		addge	r2, r2, #680
 2943 16c4 00408DE5 		addge	r2, r2, #1
 2944 16c8 FEFFFFEB 		movge	r6, #1
 2945              	.LVL378:
 2946 16cc 84008DE2 		.loc 1 768 0
 2947 16d0 0410A0E1 		bge	.L333
 2948 16d4 D8208DE2 		.loc 1 774 0
 2949 16d8 0230A0E3 		add	r2, r2, #1677721600
 2950 16dc FEFFFFEB 		add	r2, r2, #8847360
 2951              		add	r2, r2, #60672
 2952 16e0 C8008DE2 		add	r2, r2, #81
 2953 16e4 D8108DE2 	.L406:
 2954 16e8 0220A0E3 		mov	r6, #0
 2955 16ec FEFFFFEB 		b	.L333
 2956 16f0 000050E3 	.LVL379:
 2957 16f4 C905A013 	.L376:
 2958 16f8 E60B8012 		.loc 1 1237 0
 2959 16fc DE0F8012 		ldr	r3, .L414+52
 2960 1700 1401000A 		.loc 1 1246 0
 2961              		ldrh	ip, [r3, #38]
 2962              	.LVL380:
 2963 1704 04359FE5 		.loc 1 1241 0
 2964              		ldrh	r7, [r3, #28]
 2965 1708 0240A0E3 		.loc 1 1246 0
 2966              		str	ip, [sp, #40]
 2967 170c 106083E2 	.LVL381:
 2968 1710 401096E8 		.loc 1 1237 0
 2969              		ldrh	lr, [r3, #20]
 2970              		.loc 1 1238 0
 2971 1714 A8508DE2 		ldrh	r1, [r3, #22]
 2972 1718 0510A0E1 	.LVL382:
 2973 171c 0420A0E1 		.loc 1 1239 0
 2974              		ldrh	r2, [r3, #24]
 2975 1720 C0708DE2 	.LVL383:
 2976              		.loc 1 1241 0
 2977              		str	r7, [sp, #16]
 2978 1724 DCC08DE5 		.loc 1 1242 0
 2979 1728 D8608DE5 		ldrh	ip, [r3, #30]
 2980              		.loc 1 1240 0
 2981 172c FEFFFFEB 		ldrh	r9, [r3, #26]
 2982              	.LVL384:
 2983 1730 0500A0E1 		.loc 1 1243 0
 2984 1734 0410A0E1 		ldrh	fp, [r3, #32]
 2985 1738 0820A0E3 		.loc 1 1244 0
 2986 173c 0730A0E1 		ldrh	r6, [r3, #34]
 2987 1740 00408DE5 		.loc 1 1245 0
 2988 1744 FEFFFFEB 		ldrh	r7, [r3, #36]
 2989              	.LVL385:
 2990 1748 0410A0E1 		.loc 1 1237 0
 2991 174c 0130A0E1 		str	lr, [sp, #24]
 2992 1750 044084E0 	.LVL386:
 2993 1754 D8008DE2 		.loc 1 1238 0
 2994 1758 0720A0E1 		str	r1, [sp, #28]
 2995 175c 74508DE2 	.LVL387:
 2996              		.loc 1 1239 0
 2997 1760 64608DE2 		str	r2, [sp, #32]
 2998              	.LVL388:
 2999 1764 00508DE5 		.loc 1 1242 0
 3000 1768 04408DE5 		str	ip, [sp, #20]
 3001 176c FEFFFFEB 		b	.L378
 3002              	.LVL389:
 3003 1770 0410A0E1 	.L375:
 3004 1774 3E20A0E3 		.loc 1 1182 0
 3005 1778 0630A0E1 		ldr	r3, .L414+72
 3006 177c 0500A0E1 		.loc 1 1199 0
 3007 1780 00408DE5 		ldrsh	r1, [sl, #134]
 3008 1784 FEFFFFEB 	.LVL390:
 3009              		.loc 1 1216 0
 3010 1788 0600A0E1 		ldrsh	r0, [sl, #136]
 3011 178c FEFFFFEB 	.LVL391:
 3012 1790 60149FE5 		.loc 1 1182 0
 3013 1794 003091E5 		ldr	ip, [r3, #0]
 3014              	.LVL392:
 3015 1798 60249FE5 		.loc 1 1199 0
 3016              		add	r1, r1, r1, asl #2
 3017 179c 030080E0 		.loc 1 1216 0
 3018              		add	r0, r0, r0, asl #2
 3019 17a0 020050E1 		.loc 1 1182 0
 3020              		mov	r3, #-2147483648
 3021 17a4 88349FC5 		mov	r3, r3, asr #16
 3022              		mov	ip, ip, asr #7
 3023 17a8 000081E5 	.LVL393:
 3024              		.loc 1 1199 0
 3025 17ac 003081C5 		mov	r1, r1, asl #1
 3026              	.LVL394:
 3027 17b0 D40000DA 		.loc 1 1216 0
 3028              		mov	r0, r0, asl #1
 3029 17b4 3CA49FE5 	.LVL395:
 3030 17b8 0030A0E3 		cmp	r0, r3
 3031 17bc 0A30CAE5 		movlt	r0, r3
 3032 17c0 84FFFFEA 	.LVL396:
 3033              		.loc 1 1182 0
 3034              		cmp	ip, r3
 3035              		movlt	ip, r3
 3036 17c4 6C349FE5 	.LVL397:
 3037 17c8 030052E1 		.loc 1 1199 0
 3038 17cc 0D0000AA 		cmp	r1, r3
 3039              		movlt	r1, r3
 3040 17d0 ED33A0E3 	.LVL398:
 3041 17d4 9A3883E2 		.loc 1 1229 0
 3042 17d8 0E3C83E2 		ldr	r3, .L414+52
 3043 17dc 030052E1 		.loc 1 1191 0
 3044              		mov	r2, #32512
 3045 17e0 C92582A2 	.LVL399:
 3046 17e4 FD2B82A2 		add	r2, r2, #255
 3047 17e8 AA2F82A2 		.loc 1 1229 0
 3048 17ec 012082A2 		ldrh	r7, [r3, #10]
 3049 17f0 0160A0A3 		.loc 1 1226 0
 3050              		ldrsh	lr, [sl, #138]
 3051              		.loc 1 1228 0
 3052 17f4 EFFDFFAA 		ldrsh	r4, [sl, #140]
 3053              		.loc 1 1225 0
 3054 17f8 192382E2 		cmp	r0, r2
 3055 17fc 872882E2 		movge	r0, r2
 3056 1800 ED2C82E2 	.LVL400:
 3057 1804 512082E2 		.loc 1 1191 0
 3058              		cmp	ip, r2
 3059 1808 0060A0E3 		movge	ip, r2
 3060 180c E9FDFFEA 	.LVL401:
 3061              		.loc 1 1208 0
 3062              		cmp	r1, r2
 3063              		movge	r1, r2
 3064 1810 10349FE5 	.LVL402:
 3065              		.loc 1 1191 0
 3066 1814 B6C2D3E1 		mov	ip, ip, asl #16
 3067              		.loc 1 1208 0
 3068              		mov	r1, r1, asl #16
 3069 1818 BC71D3E1 		.loc 1 1225 0
 3070              		mov	r0, r0, asl #16
 3071 181c 28C08DE5 		.loc 1 1226 0
 3072              		mov	lr, lr, asl #15
 3073              		.loc 1 1228 0
 3074 1820 B4E1D3E1 		mov	r4, r4, asl #15
 3075              		.loc 1 1233 0
 3076 1824 B611D3E1 		ldrh	r2, [r3, #18]
 3077              		.loc 1 1229 0
 3078              		str	r7, [sp, #20]
 3079 1828 B821D3E1 		.loc 1 1230 0
 3080              		ldrh	fp, [r3, #12]
 3081              		.loc 1 1231 0
 3082 182c 10708DE5 		ldrh	r6, [r3, #14]
 3083              		.loc 1 1232 0
 3084 1830 BEC1D3E1 		ldrh	r7, [r3, #16]
 3085              	.LVL403:
 3086 1834 BA91D3E1 		.loc 1 1191 0
 3087              		mov	ip, ip, lsr #16
 3088              		.loc 1 1208 0
 3089 1838 B0B2D3E1 		mov	r1, r1, lsr #16
 3090              		.loc 1 1225 0
 3091 183c B262D3E1 		mov	r0, r0, lsr #16
 3092              		.loc 1 1228 0
 3093 1840 B472D3E1 		mov	r4, r4, lsr #16
 3094              		.loc 1 1226 0
 3095              		mov	r9, lr, lsr #16
 3096 1844 18E08DE5 	.LVL404:
 3097              		.loc 1 1233 0
 3098              		str	r2, [sp, #40]
 3099 1848 1C108DE5 	.LVL405:
 3100              		.loc 1 1191 0
 3101              		str	ip, [sp, #24]
 3102 184c 20208DE5 	.LVL406:
 3103              		.loc 1 1208 0
 3104              		str	r1, [sp, #28]
 3105 1850 14C08DE5 	.LVL407:
 3106 1854 01FFFFEA 		.loc 1 1225 0
 3107              		str	r0, [sp, #32]
 3108              	.LVL408:
 3109              		.loc 1 1228 0
 3110 1858 DC339FE5 		str	r4, [sp, #16]
 3111              		b	.L378
 3112 185c F618DAE1 	.LVL409:
 3113              	.L374:
 3114              		.loc 1 1100 0
 3115 1860 F808DAE1 		ldr	r1, [sl, #68]
 3116              	.LVL410:
 3117              		ldr	r0, .L414+76
 3118 1864 00C093E5 	.LVL411:
 3119              		bl	mul_s32_s32_s32_sr31_sat_zero
 3120              	.LVL412:
 3121 1868 011181E0 		.loc 1 1117 0
 3122              		ldr	r1, [sl, #64]
 3123 186c 000180E0 		.loc 1 1100 0
 3124              		mov	r6, r0
 3125 1870 0231A0E3 	.LVL413:
 3126 1874 4338A0E1 		.loc 1 1117 0
 3127 1878 CCC3A0E1 		ldr	r0, .L414+76
 3128              		bl	mul_s32_s32_s32_sr30_sat_zero
 3129              		.loc 1 1134 0
 3130 187c 8110A0E1 		ldr	r1, [sl, #76]
 3131              		.loc 1 1117 0
 3132              		mov	r5, r0
 3133 1880 8000A0E1 		.loc 1 1134 0
 3134              		ldr	r0, .L414+80
 3135 1884 030050E1 		bl	mul_s32_s32_s32_sr28_sat_zero
 3136 1888 0300A0B1 		.loc 1 1151 0
 3137              		ldr	r1, [sl, #80]
 3138              		.loc 1 1134 0
 3139 188c 03005CE1 		mov	r4, r0
 3140 1890 03C0A0B1 		.loc 1 1151 0
 3141              		ldr	r0, .L414+80
 3142              		bl	mul_s32_s32_s32_sr28_sat_zero
 3143 1894 030051E1 		.loc 1 1167 0
 3144 1898 0310A0B1 		ldr	r3, [sl, #104]
 3145              		.loc 1 1168 0
 3146              		tst	r3, #2
 3147 189c 84339FE5 		.loc 1 1167 0
 3148              		and	r2, r3, #255
 3149 18a0 7F2CA0E3 		.loc 1 1168 0
 3150              		mvnne	r3, r2, asl #31
 3151 18a4 FF2082E2 		mvnne	r3, r3, lsr #31
 3152              		andeq	r3, r3, #1
 3153 18a8 BA70D3E1 		movne	r3, r3, asl #25
 3154              		moveq	r3, r3, asl #25
 3155 18ac FAE8DAE1 		movne	r3, r3, lsr #16
 3156              		moveq	r3, r3, lsr #16
 3157 18b0 FC48DAE1 		strne	r3, [sp, #16]
 3158              		streq	r3, [sp, #16]
 3159 18b4 020050E1 		.loc 1 1151 0
 3160 18b8 0200A0A1 		mov	lr, r0
 3161              		.loc 1 1100 0
 3162              		mov	r3, #-2147483648
 3163 18bc 02005CE1 		mov	r3, r3, asr #16
 3164 18c0 02C0A0A1 		mov	r1, r6, asr #14
 3165              	.LVL414:
 3166              		.loc 1 1117 0
 3167 18c4 020051E1 		mov	r0, r5, asr #15
 3168 18c8 0210A0A1 	.LVL415:
 3169              		.loc 1 1134 0
 3170              		mov	ip, r4, asr #1
 3171 18cc 0CC8A0E1 	.LVL416:
 3172              		.loc 1 1151 0
 3173 18d0 0118A0E1 		mov	lr, lr, asr #1
 3174              	.LVL417:
 3175 18d4 0008A0E1 		.loc 1 1110 0
 3176              		mov	r2, #32512
 3177 18d8 8EE7A0E1 		add	r2, r2, #255
 3178              		.loc 1 1151 0
 3179 18dc 8447A0E1 		cmp	lr, r3
 3180              		movlt	lr, r3
 3181 18e0 B221D3E1 	.LVL418:
 3182              		.loc 1 1100 0
 3183 18e4 14708DE5 		cmp	r1, r3
 3184              		movlt	r1, r3
 3185 18e8 BCB0D3E1 	.LVL419:
 3186              		.loc 1 1117 0
 3187 18ec BE60D3E1 		cmp	r0, r3
 3188              		movlt	r0, r3
 3189 18f0 B071D3E1 	.LVL420:
 3190              		.loc 1 1134 0
 3191              		cmp	ip, r3
 3192 18f4 2CC8A0E1 		movlt	ip, r3
 3193              	.LVL421:
 3194 18f8 2118A0E1 		.loc 1 1170 0
 3195              		ldrsh	r4, [sl, #142]
 3196 18fc 2008A0E1 		.loc 1 1171 0
 3197              		ldrsh	r5, [sl, #144]
 3198 1900 2448A0E1 		.loc 1 1172 0
 3199              		ldrsh	r6, [sl, #146]
 3200 1904 2E98A0E1 		.loc 1 1173 0
 3201              		ldrsh	r7, [sl, #148]
 3202              		.loc 1 1175 0
 3203 1908 28208DE5 		ldr	r3, .L414+52
 3204              		.loc 1 1161 0
 3205              		cmp	lr, r2
 3206 190c 18C08DE5 		movge	lr, r2
 3207              	.LVL422:
 3208              		.loc 1 1110 0
 3209 1910 1C108DE5 		cmp	r1, r2
 3210              		movge	r1, r2
 3211              	.LVL423:
 3212 1914 20008DE5 		.loc 1 1127 0
 3213              		cmp	r0, r2
 3214              		movge	r0, r2
 3215 1918 10408DE5 	.LVL424:
 3216 191c CFFEFFEA 		.loc 1 1144 0
 3217              		cmp	ip, r2
 3218              		movge	ip, r2
 3219              	.LVL425:
 3220 1920 44109AE5 		.loc 1 1110 0
 3221              		mov	r1, r1, asl #16
 3222 1924 14039FE5 		.loc 1 1127 0
 3223              		mov	r0, r0, asl #16
 3224 1928 FEFFFFEB 		.loc 1 1144 0
 3225              		mov	ip, ip, asl #16
 3226              		.loc 1 1161 0
 3227 192c 40109AE5 		mov	lr, lr, asl #16
 3228              		.loc 1 1170 0
 3229 1930 0060A0E1 		mov	r4, r4, asl #15
 3230              		.loc 1 1171 0
 3231              		mov	r5, r5, asl #15
 3232 1934 04039FE5 		.loc 1 1172 0
 3233 1938 FEFFFFEB 		mov	r6, r6, asl #15
 3234              		.loc 1 1173 0
 3235 193c 4C109AE5 		mov	r7, r7, asl #15
 3236              		.loc 1 1175 0
 3237 1940 0050A0E1 		ldrh	r3, [r3, #8]
 3238              		.loc 1 1110 0
 3239 1944 F8029FE5 		mov	r1, r1, lsr #16
 3240 1948 FEFFFFEB 		.loc 1 1127 0
 3241              		mov	r0, r0, lsr #16
 3242 194c 50109AE5 		.loc 1 1144 0
 3243              		mov	ip, ip, lsr #16
 3244 1950 0040A0E1 		.loc 1 1170 0
 3245              		mov	r4, r4, lsr #16
 3246 1954 E8029FE5 		.loc 1 1161 0
 3247 1958 FEFFFFEB 		mov	r9, lr, lsr #16
 3248              	.LVL426:
 3249 195c 68309AE5 		.loc 1 1171 0
 3250              		mov	fp, r5, lsr #16
 3251 1960 020013E3 		.loc 1 1172 0
 3252              		mov	r6, r6, lsr #16
 3253 1964 FF2003E2 	.LVL427:
 3254              		.loc 1 1173 0
 3255 1968 823FE011 		mov	r7, r7, lsr #16
 3256 196c A33FE011 	.LVL428:
 3257 1970 01300302 		.loc 1 1175 0
 3258 1974 833CA011 		str	r3, [sp, #40]
 3259 1978 833CA001 	.LVL429:
 3260 197c 2338A011 		.loc 1 1110 0
 3261 1980 2338A001 		str	r1, [sp, #24]
 3262 1984 10308D15 	.LVL430:
 3263 1988 10308D05 		.loc 1 1127 0
 3264              		str	r0, [sp, #28]
 3265 198c 00E0A0E1 	.LVL431:
 3266              		.loc 1 1144 0
 3267 1990 0231A0E3 		str	ip, [sp, #32]
 3268 1994 4338A0E1 	.LVL432:
 3269 1998 4617A0E1 		.loc 1 1170 0
 3270              		str	r4, [sp, #20]
 3271              		b	.L378
 3272 199c C507A0E1 	.LVL433:
 3273              	.L373:
 3274              		.loc 1 1083 0
 3275 19a0 C4C0A0E1 		ldrb	r3, [sl, #156]	@ zero_extendqisi2
 3276              		.loc 1 1084 0
 3277              		ldrb	r2, [sl, #157]	@ zero_extendqisi2
 3278 19a4 CEE0A0E1 	.LVL434:
 3279              		.loc 1 1085 0
 3280              		ldrb	r1, [sl, #158]	@ zero_extendqisi2
 3281 19a8 7F2CA0E3 	.LVL435:
 3282 19ac FF2082E2 		.loc 1 1086 0
 3283              		ldrb	r0, [sl, #159]	@ zero_extendqisi2
 3284 19b0 03005EE1 	.LVL436:
 3285 19b4 03E0A0B1 		.loc 1 1083 0
 3286              		add	ip, r3, r3, asl #2
 3287              	.LVL437:
 3288 19b8 030051E1 		.loc 1 1084 0
 3289 19bc 0310A0B1 		add	lr, r2, r2, asl #2
 3290              		.loc 1 1083 0
 3291              		add	r3, r3, ip, asl #3
 3292 19c0 030050E1 		.loc 1 1085 0
 3293 19c4 0300A0B1 		add	r4, r1, r1, asl #2
 3294              		.loc 1 1091 0
 3295              		ldr	ip, .L414+52
 3296 19c8 03005CE1 		.loc 1 1086 0
 3297 19cc 03C0A0B1 		add	r5, r0, r0, asl #2
 3298              		.loc 1 1084 0
 3299              		add	r2, r2, lr, asl #3
 3300 19d0 FE48DAE1 		.loc 1 1085 0
 3301              		add	r1, r1, r4, asl #3
 3302 19d4 F059DAE1 		.loc 1 1086 0
 3303              		add	r0, r0, r5, asl #3
 3304 19d8 F269DAE1 		.loc 1 1092 0
 3305              		ldrh	r7, [ip, #6]
 3306 19dc F479DAE1 		.loc 1 1083 0
 3307              		mov	r3, r3, asl #17
 3308 19e0 40329FE5 		.loc 1 1084 0
 3309              		mov	r2, r2, asl #17
 3310 19e4 02005EE1 		.loc 1 1085 0
 3311 19e8 02E0A0A1 		mov	r1, r1, asl #17
 3312              		.loc 1 1086 0
 3313              		mov	r0, r0, asl #17
 3314 19ec 020051E1 		.loc 1 1083 0
 3315 19f0 0210A0A1 		mov	r3, r3, asr #21
 3316              		.loc 1 1084 0
 3317              		mov	r2, r2, asr #21
 3318 19f4 020050E1 		.loc 1 1085 0
 3319 19f8 0200A0A1 		mov	r1, r1, asr #21
 3320              		.loc 1 1086 0
 3321              		mov	r0, r0, asr #21
 3322 19fc 02005CE1 		.loc 1 1083 0
 3323 1a00 02C0A0A1 		mov	r3, r3, asl #16
 3324              		.loc 1 1084 0
 3325              		mov	r2, r2, asl #16
 3326 1a04 0118A0E1 		.loc 1 1085 0
 3327              		mov	r1, r1, asl #16
 3328 1a08 0008A0E1 		.loc 1 1086 0
 3329              		mov	r0, r0, asl #16
 3330 1a0c 0CC8A0E1 		.loc 1 1092 0
 3331              		str	r7, [sp, #40]
 3332 1a10 0EE8A0E1 	.LVL438:
 3333              		.loc 1 1091 0
 3334 1a14 8447A0E1 		ldrh	r7, [ip, #4]
 3335              	.LVL439:
 3336 1a18 8557A0E1 		.loc 1 1092 0
 3337              		mov	lr, r2, lsr #16
 3338 1a1c 8667A0E1 		mov	ip, r3, lsr #16
 3339              		mov	fp, r1, lsr #16
 3340 1a20 8777A0E1 		mov	r3, r3, lsr #16
 3341              		mov	r2, r2, lsr #16
 3342 1a24 B830D3E1 		mov	r1, r1, lsr #16
 3343              		mov	r6, r0, lsr #16
 3344 1a28 2118A0E1 		mov	r9, r0, lsr #16
 3345              	.LVL440:
 3346 1a2c 2008A0E1 		str	ip, [sp, #16]
 3347              		str	lr, [sp, #20]
 3348 1a30 2CC8A0E1 		str	r3, [sp, #24]
 3349              	.LVL441:
 3350 1a34 2448A0E1 		str	r2, [sp, #28]
 3351              	.LVL442:
 3352 1a38 2E98A0E1 		str	r1, [sp, #32]
 3353              	.LVL443:
 3354              		b	.L378
 3355 1a3c 25B8A0E1 	.LVL444:
 3356              	.L413:
 3357 1a40 2668A0E1 		.loc 1 1360 0
 3358              		ldr	r3, .L414+8
 3359              		.loc 1 1371 0
 3360 1a44 2778A0E1 		ldr	sl, .L414+4
 3361              		.loc 1 1360 0
 3362              		cmp	r0, r3
 3363 1a48 28308DE5 		.loc 1 1361 0
 3364              		strle	r3, [r1, #0]
 3365              		.loc 1 1371 0
 3366 1a4c 18108DE5 		mov	r3, #0
 3367              		strb	r3, [sl, #10]
 3368              		b	.L395
 3369 1a50 1C008DE5 	.LVL445:
 3370              	.L408:
 3371              		.loc 1 745 0
 3372 1a54 20C08DE5 		ldrsh	r3, [sl, #134]
 3373              	.LVL446:
 3374              		.loc 1 746 0
 3375 1a58 14408DE5 		ldrsh	r2, [sl, #136]
 3376 1a5c 7FFEFFEA 	.LVL447:
 3377              		.loc 1 747 0
 3378              		ldrsh	r1, [sl, #138]
 3379              	.LVL448:
 3380 1a60 9C30DAE5 		.loc 1 748 0
 3381              		ldrsh	r0, [sl, #140]
 3382 1a64 9D20DAE5 		.loc 1 745 0
 3383              		add	r3, r3, r3, asl #2
 3384              		.loc 1 746 0
 3385 1a68 9E10DAE5 		add	r2, r2, r2, asl #2
 3386              		.loc 1 747 0
 3387              		add	r1, r1, r1, asl #2
 3388 1a6c 9F00DAE5 		.loc 1 748 0
 3389              		add	r0, r0, r0, asl #2
 3390              		.loc 1 745 0
 3391 1a70 03C183E0 		mov	r3, r3, asl #8
 3392              	.LVL449:
 3393              		.loc 1 746 0
 3394 1a74 02E182E0 		mov	r2, r2, asl #8
 3395              	.LVL450:
 3396 1a78 8C3183E0 		.loc 1 747 0
 3397              		mov	r1, r1, asl #8
 3398 1a7c 014181E0 	.LVL451:
 3399              		.loc 1 748 0
 3400 1a80 A0C19FE5 		mov	r0, r0, asl #8
 3401              	.LVL452:
 3402 1a84 005180E0 		b	.L328
 3403              	.LVL453:
 3404 1a88 8E2182E0 	.L412:
 3405              		.loc 1 1333 0
 3406 1a8c 841181E0 		add	r1, sp, #156
 3407              		mov	r2, r4
 3408 1a90 850180E0 		bl	sLong2MultiWord
 3409              		.loc 1 1334 0
 3410 1a94 B670DCE1 		add	r0, sp, #156
 3411              		add	r3, sp, #132
 3412 1a98 8338A0E1 		mov	r1, r4
 3413              		mov	r2, #38
 3414 1a9c 8228A0E1 		str	r4, [sp, #0]
 3415              		bl	sMultiWordShl
 3416 1aa0 8118A0E1 		.loc 1 1335 0
 3417              		add	r0, sp, #132
 3418 1aa4 8008A0E1 		mov	r1, r4
 3419              		add	r2, sp, #176
 3420 1aa8 C33AA0E1 		mov	r3, #2
 3421              		bl	sMultiWord2MultiWord
 3422 1aac C22AA0E1 		.loc 1 1336 0
 3423              		add	r0, sp, #200
 3424 1ab0 C11AA0E1 		add	r1, sp, #176
 3425              		mov	r2, #2
 3426 1ab4 C00AA0E1 		bl	sMultiWordLe
 3427              		cmp	r0, #0
 3428 1ab8 0338A0E1 		ldrne	r0, [sp, #8]
 3429              		bne	.L386
 3430 1abc 0228A0E1 		.loc 1 1339 0
 3431              		mov	ip, #2
 3432 1ac0 0118A0E1 		add	r4, sp, #184
 3433              		mov	r3, r4
 3434 1ac4 0008A0E1 		mov	r1, ip
 3435              		add	r0, sp, #200
 3436 1ac8 28708DE5 		mov	r2, #38
 3437              		str	ip, [sp, #0]
 3438              		bl	sMultiWordShrZero
 3439 1acc B470DCE1 		.loc 1 1340 0
 3440              		mov	r0, r4
 3441              		bl	MultiWord2sLong
 3442 1ad0 22E8A0E1 		mov	r0, r0, asl #16
 3443 1ad4 23C8A0E1 		mov	r0, r0, asr #16
 3444 1ad8 21B8A0E1 		add	r3, r0, r0, asl #5
 3445 1adc 2338A0E1 		add	r3, r0, r3, asl #1
 3446 1ae0 2228A0E1 		rsb	r3, r3, r3, asl #2
 3447 1ae4 2118A0E1 		add	r0, r0, r3, asl #4
 3448 1ae8 2068A0E1 		mov	r0, r0, asl #3
 3449 1aec 2098A0E1 		b	.L386
 3450              	.L415:
 3451 1af0 10C08DE5 		.align	2
 3452 1af4 14E08DE5 	.L414:
 3453 1af8 18308DE5 		.word	onboard_matlab_U
 3454              		.word	onboard_matlab_DWork
 3455 1afc 1C208DE5 		.word	-1686629713
 3456              		.word	1686629712
 3457 1b00 20108DE5 		.word	421657428
 3458              		.word	652032978
 3459 1b04 55FEFFEA 		.word	cordicLUT_n11_s32En.2214
 3460              		.word	onboard_matlab_ConstP
 3461              		.word	uart_up_p_11
 3462              		.word	uart_up_p_14
 3463 1b08 EC309FE5 		.word	onboard_matlab_Y
 3464              		.word	1700807049
 3465 1b0c E4A09FE5 		.word	uart_up_p_12
 3466              		.word	onboard_matlab_ConstB
 3467 1b10 030050E1 		.word	307041569
 3468              		.word	1184573955
 3469 1b14 003081D5 		.word	1686629713
 3470              		.word	-421657428
 3471 1b18 0030A0E3 		.word	uart_up_p_10
 3472 1b1c 0A30CAE5 		.word	1801439851
 3473 1b20 ACFEFFEA 		.word	274877907
 3474              	.LFE22:
 3476              		.align	2
 3477 1b24 F638DAE1 		.global	onboard_matlab_step1
 3479              	onboard_matlab_step1:
 3480 1b28 F828DAE1 	.LFB23:
 3481              		.loc 1 1407 0
 3482              		@ Function supports interworking.
 3483 1b2c FA18DAE1 		@ args = 0, pretend = 0, frame = 0
 3484              		@ frame_needed = 0, uses_anonymous_args = 0
 3485              		@ link register save eliminated.
 3486 1b30 FC08DAE1 		@ lr needed for prologue
 3487              		.loc 1 1409 0
 3488 1b34 033183E0 		bx	lr
 3489              	.LFE23:
 3491              		.align	2
 3492 1b3c 011181E0 		.global	onboard_matlab_initialize
 3494 1b40 000180E0 	onboard_matlab_initialize:
 3495              	.LFB24:
 3496 1b44 0334A0E1 		.loc 1 1413 0
 3497              		@ Function supports interworking.
 3498              		@ args = 0, pretend = 0, frame = 0
 3499 1b48 0224A0E1 		@ frame_needed = 0, uses_anonymous_args = 0
 3500              		@ link register save eliminated.
 3501              		.loc 1 1415 0
 3502 1b4c 0114A0E1 		ldr	r3, .L420
 3503              		mov	r2, #1	@ movhi
 3504              		.loc 1 1413 0
 3505 1b50 0004A0E1 		@ lr needed for prologue
 3506              		.loc 1 1415 0
 3507 1b54 A0FDFFEA 		strh	r2, [r3, #8]	@ movhi
 3508              		.loc 1 1416 0
 3509              		bx	lr
 3510              	.L421:
 3511 1b58 9C108DE2 		.align	2
 3512 1b5c 0420A0E1 	.L420:
 3513 1b60 FEFFFFEB 		.word	onboard_matlab_DWork
 3514              	.LFE24:
 3516 1b68 84308DE2 		.section	.rodata
 3517 1b6c 0410A0E1 		.align	2
 3520 1b78 FEFFFFEB 	cordicLUT_n11_s32En.2214:
 3521              		.word	843314857
 3522 1b7c 84008DE2 		.word	497837829
 3523 1b80 0410A0E1 		.word	263043837
 3524 1b84 B0208DE2 		.word	133525159
 3525 1b88 0230A0E3 		.word	67021687
 3526 1b8c FEFFFFEB 		.word	33543516
 3527              		.word	16775851
 3528 1b90 C8008DE2 		.word	8388437
 3529 1b94 B0108DE2 		.word	4194283
 3530 1b98 0220A0E3 		.word	2097149
 3531 1b9c FEFFFFEB 		.word	1048576
 3532 1ba0 000050E3 		.comm	onboard_matlab_DWork,12,4
 3533 1ba4 08009D15 		.comm	onboard_matlab_U,164,4
 3534 1ba8 D5FEFF1A 		.comm	onboard_matlab_Y,76,4
 3535              		.section	.debug_frame,"",%progbits
 3536 1bac 02C0A0E3 	.Lframe0:
 3537 1bb0 B8408DE2 		.4byte	.LECIE0-.LSCIE0
 3538 1bb4 0430A0E1 	.LSCIE0:
 3539 1bb8 0C10A0E1 		.4byte	0xffffffff
 3540 1bbc C8008DE2 		.byte	0x1
 3541 1bc0 2620A0E3 		.ascii	"\000"
 3542 1bc4 00C08DE5 		.uleb128 0x1
 3543 1bc8 FEFFFFEB 		.sleb128 -4
 3544              		.byte	0xe
 3545 1bcc 0400A0E1 		.byte	0xc
 3546 1bd0 FEFFFFEB 		.uleb128 0xd
 3547 1bd4 0008A0E1 		.uleb128 0x0
 3548 1bd8 4008A0E1 		.align	2
 3549 1bdc 803280E0 	.LECIE0:
 3550 1be0 833080E0 	.LSFDE0:
 3551 1be4 033163E0 		.4byte	.LEFDE0-.LASFDE0
 3552 1be8 030280E0 	.LASFDE0:
 3553 1bec 8001A0E1 		.4byte	.Lframe0
 3554 1bf0 C3FEFFEA 		.4byte	.LFB2
 3555              		.4byte	.LFE2-.LFB2
 3556              		.byte	0x4
 3557              		.4byte	.LCFI0-.LFB2
 3558 1bf4 00000000 		.byte	0xe
 3559 1bf8 00000000 		.uleb128 0x10
 3560 1bfc AF12789B 		.byte	0x8e
 3561 1c00 50ED8764 		.uleb128 0x1
 3562 1c04 54FB2119 		.byte	0x86
 3563 1c08 D23BDD26 		.uleb128 0x2
 3564 1c0c 00000000 		.byte	0x85
 3565 1c10 00000000 		.uleb128 0x3
 3566 1c14 00000000 		.byte	0x84
 3567 1c18 00000000 		.uleb128 0x4
 3568 1c1c 00000000 		.align	2
 3569 1c20 89416065 	.LEFDE0:
 3570 1c24 00000000 	.LSFDE2:
 3571 1c28 00000000 		.4byte	.LEFDE2-.LASFDE2
 3572 1c2c 21154D12 	.LASFDE2:
 3573 1c30 032A9B46 		.4byte	.Lframe0
 3574 1c34 51ED8764 		.4byte	.LFB3
 3575 1c38 AC04DEE6 		.4byte	.LFE3-.LFB3
 3576 1c3c 00000000 		.byte	0x4
 3577 1c40 6BCA5F6B 		.4byte	.LCFI1-.LFB3
 3578 1c44 D34D6210 		.byte	0xe
 3579              		.uleb128 0x1c
 3580              		.byte	0x8e
 3581              		.uleb128 0x1
 3582              		.byte	0x8a
 3583              		.uleb128 0x2
 3584              		.byte	0x88
 3585              		.uleb128 0x3
1404:../custom_mdl/onboard_matlab_ert_rtw/onboard_matlab.c **** 
1405:../custom_mdl/onboard_matlab_ert_rtw/onboard_matlab.c **** /* Model step function for TID1 */
1406:../custom_mdl/onboard_matlab_ert_rtw/onboard_matlab.c **** void onboard_matlab_step1(void)        /* Sample time: [0.002s, 0.0s] */
1407:../custom_mdl/onboard_matlab_ert_rtw/onboard_matlab.c **** {
 3586              	
 3587              		.4byte	.LFE4-.LFB4
 3588              		.byte	0x4
 3589              		.4byte	.LCFI2-.LFB4
 3590              		.byte	0xe
 3591              		.uleb128 0x4
1408:../custom_mdl/onboard_matlab_ert_rtw/onboard_matlab.c ****   /* (no output/update code required) */
1409:../custom_mdl/onboard_matlab_ert_rtw/onboard_matlab.c **** }
 3592              	e	0x4
 3593 1c48 1EFF2FE1 		.4byte	.LCFI3-.LCFI2
 3594              		.byte	0xe
 3595              		.uleb128 0xc
 3596              		.byte	0x8e
 3597              		.uleb128 0x1
 3598              		.align	2
 3599              	.LEFDE4:
 3600              	.LSFDE6:
1410:../custom_mdl/onboard_matlab_ert_rtw/onboard_matlab.c **** 
1411:../custom_mdl/onboard_matlab_ert_rtw/onboard_matlab.c **** /* Model initialize function */
1412:../custom_mdl/onboard_matlab_ert_rtw/onboard_matlab.c **** void onboard_matlab_initialize(void)
1413:../custom_mdl/onboard_matlab_ert_rtw/onboard_matlab.c **** {
 3601              	LEFDE6-.LASFDE6
 3602              	.LASFDE6:
 3603              		.4byte	.Lframe0
 3604              		.4byte	.LFB5
 3605              		.4byte	.LFE5-.LFB5
1414:../custom_mdl/onboard_matlab_ert_rtw/onboard_matlab.c ****   /* InitializeConditions for UnitDelay: '<S14>/Unit Delay' */
1415:../custom_mdl/onboard_matlab_ert_rtw/onboard_matlab.c ****   onboard_matlab_DWork.UnitDelay_DSTATE = 1;
 3606              	e	0x4
 3607 1c4c 08309FE5 		.4byte	.LCFI4-.LFB5
 3608 1c50 0120A0E3 		.byte	0xe
 3609              		.uleb128 0x4
 3610              		.byte	0x4
 3611              		.4byte	.LCFI5-.LCFI4
 3612 1c54 B820C3E1 		.byte	0xe
1416:../custom_mdl/onboard_matlab_ert_rtw/onboard_matlab.c **** }
 3613              	28 0xc
 3614 1c58 1EFF2FE1 		.byte	0x8e
 3615              		.uleb128 0x1
 3616              		.align	2
 3617              	.LEFDE6:
 3618 1c5c 00000000 	.LSFDE8:
 3619              		.4byte	.LEFDE8-.LASFDE8
 3620              	.LASFDE8:
 3621              		.4byte	.Lframe0
 3622              		.4byte	.LFB6
 3623              		.4byte	.LFE6-.LFB6
 3624              		.byte	0x4
 3625              		.4byte	.LCFI6-.LFB6
 3626 0000 A9F64332 		.byte	0xe
 3627 0004 0567AC1D 		.uleb128 0x4
 3628 0008 FDBAAD0F 		.byte	0x4
 3629 000c A76EF507 		.4byte	.LCFI7-.LCFI6
 3630 0010 77ABFE03 		.byte	0xe
 3631 0014 5CD5FF01 		.uleb128 0xc
 3632 0018 ABFAFF00 		.byte	0x8e
 3633 001c 55FF7F00 		.uleb128 0x1
 3634 0020 EBFF3F00 		.align	2
 3635 0024 FDFF1F00 	.LEFDE8:
 3636 0028 00001000 	.LSFDE10:
 3637              		.4byte	.LEFDE10-.LASFDE10
 3638              	.LASFDE10:
 3639              		.4byte	.Lframe0
 4122              		.2byte	0x1
DEFINED SYMBOLS
                            *ABS*:00000000 onboard_matlab.c
C:\Users\Javid\AppData\Local\Temp/cc4Ucaaa.s:15     .text:00000000 div_nzp_s32_ceiling
C:\Users\Javid\AppData\Local\Temp/cc4Ucaaa.s:24     .text:00000000 $a
C:\Users\Javid\AppData\Local\Temp/cc4Ucaaa.s:54     .text:00000044 mul_wide_s32
C:\Users\Javid\AppData\Local\Temp/cc4Ucaaa.s:163    .text:00000100 mul_s32_s32_s32_sr30
C:\Users\Javid\AppData\Local\Temp/cc4Ucaaa.s:195    .text:00000130 mul_s32_s32_s32_sr32
C:\Users\Javid\AppData\Local\Temp/cc4Ucaaa.s:222    .text:00000154 mul_s32_s32_s32_sr28_sat_zero
C:\Users\Javid\AppData\Local\Temp/cc4Ucaaa.s:306    .text:000001f4 mul_s32_s32_s32_sr30_sat_zero
C:\Users\Javid\AppData\Local\Temp/cc4Ucaaa.s:390    .text:00000294 mul_s32_s32_s32_sr31_sat_zero
C:\Users\Javid\AppData\Local\Temp/cc4Ucaaa.s:474    .text:00000334 MultiWord2sLong
C:\Users\Javid\AppData\Local\Temp/cc4Ucaaa.s:494    .text:0000033c sMultiWordShr
C:\Users\Javid\AppData\Local\Temp/cc4Ucaaa.s:660    .text:00000468 ssuMultiWordMul
C:\Users\Javid\AppData\Local\Temp/cc4Ucaaa.s:917    .text:0000065c sMultiWordMul
C:\Users\Javid\AppData\Local\Temp/cc4Ucaaa.s:1213   .text:0000089c sMultiWord2sMultiWordSat
C:\Users\Javid\AppData\Local\Temp/cc4Ucaaa.s:1365   .text:000009c0 MultiWordAdd
C:\Users\Javid\AppData\Local\Temp/cc4Ucaaa.s:1436   .text:00000a44 sMultiWord2MultiWord
C:\Users\Javid\AppData\Local\Temp/cc4Ucaaa.s:1513   .text:00000ad0 sMultiWordShl
C:\Users\Javid\AppData\Local\Temp/cc4Ucaaa.s:1690   .text:00000c00 sLong2MultiWord
C:\Users\Javid\AppData\Local\Temp/cc4Ucaaa.s:1726   .text:00000c30 sMultiWordCmp
C:\Users\Javid\AppData\Local\Temp/cc4Ucaaa.s:1810   .text:00000cb8 sMultiWordGe
C:\Users\Javid\AppData\Local\Temp/cc4Ucaaa.s:1832   .text:00000cd0 sMultiWordLe
C:\Users\Javid\AppData\Local\Temp/cc4Ucaaa.s:1855   .text:00000cec sMultiWordShrZero
C:\Users\Javid\AppData\Local\Temp/cc4Ucaaa.s:2008   .text:00000e34 onboard_matlab_step0
C:\Users\Javid\AppData\Local\Temp/cc4Ucaaa.s:2636   .text:00001400 $d
C:\Users\Javid\AppData\Local\Temp/cc4Ucaaa.s:2644   .text:00001414 $a
C:\Users\Javid\AppData\Local\Temp/cc4Ucaaa.s:3558   .text:00001bf4 $d
                            *COM*:000000a4 onboard_matlab_U
                            *COM*:0000000c onboard_matlab_DWork
C:\Users\Javid\AppData\Local\Temp/cc4Ucaaa.s:3625   .rodata:00000000 cordicLUT_n11_s32En.2214
                            *COM*:0000004c onboard_matlab_Y
C:\Users\Javid\AppData\Local\Temp/cc4Ucaaa.s:3584   .text:00001c48 onboard_matlab_step1
C:\Users\Javid\AppData\Local\Temp/cc4Ucaaa.s:3593   .text:00001c48 $a
C:\Users\Javid\AppData\Local\Temp/cc4Ucaaa.s:3599   .text:00001c4c onboard_matlab_initialize
C:\Users\Javid\AppData\Local\Temp/cc4Ucaaa.s:3618   .text:00001c5c $d
C:\Users\Javid\AppData\Local\Temp/cc4Ucaaa.s:3626   .rodata:00000000 $d

UNDEFINED SYMBOLS
__modsi3
__divsi3
onboard_matlab_ConstP
uart_up_p_11
uart_up_p_14
uart_up_p_12
onboard_matlab_ConstB
uart_up_p_10
